
at90swuart.elf:     file format elf32-avr

Sections:
Idx Name          Size      VMA       LMA       File off  Algn
  0 .data         00000278  00800100  0000135e  000013f2  2**0
                  CONTENTS, ALLOC, LOAD, DATA
  1 .text         0000135e  00000000  00000000  00000094  2**1
                  CONTENTS, ALLOC, LOAD, READONLY, CODE
  2 .bss          000000f5  00800378  00800378  0000166a  2**0
                  ALLOC
  3 .comment      0000005c  00000000  00000000  0000166a  2**0
                  CONTENTS, READONLY
  4 .note.gnu.avr.deviceinfo 00000040  00000000  00000000  000016c8  2**2
                  CONTENTS, READONLY
  5 .debug_info   00000b70  00000000  00000000  00001708  2**0
                  CONTENTS, READONLY, DEBUGGING
  6 .debug_abbrev 00000ad2  00000000  00000000  00002278  2**0
                  CONTENTS, READONLY, DEBUGGING
  7 .debug_line   0000017c  00000000  00000000  00002d4a  2**0
                  CONTENTS, READONLY, DEBUGGING
  8 .debug_str    000003f7  00000000  00000000  00002ec6  2**0
                  CONTENTS, READONLY, DEBUGGING

Disassembly of section .text:

00000000 <__vectors>:
       0:	51 c0       	rjmp	.+162    	; 0xa4 <__ctors_end>
       2:	00 00       	nop
       4:	6d c0       	rjmp	.+218    	; 0xe0 <__bad_interrupt>
       6:	00 00       	nop
       8:	6b c0       	rjmp	.+214    	; 0xe0 <__bad_interrupt>
       a:	00 00       	nop
       c:	69 c0       	rjmp	.+210    	; 0xe0 <__bad_interrupt>
       e:	00 00       	nop
      10:	67 c0       	rjmp	.+206    	; 0xe0 <__bad_interrupt>
      12:	00 00       	nop
      14:	65 c0       	rjmp	.+202    	; 0xe0 <__bad_interrupt>
      16:	00 00       	nop
      18:	63 c0       	rjmp	.+198    	; 0xe0 <__bad_interrupt>
      1a:	00 00       	nop
      1c:	61 c0       	rjmp	.+194    	; 0xe0 <__bad_interrupt>
      1e:	00 00       	nop
      20:	5f c0       	rjmp	.+190    	; 0xe0 <__bad_interrupt>
      22:	00 00       	nop
      24:	5d c0       	rjmp	.+186    	; 0xe0 <__bad_interrupt>
      26:	00 00       	nop
      28:	5b c0       	rjmp	.+182    	; 0xe0 <__bad_interrupt>
      2a:	00 00       	nop
      2c:	59 c0       	rjmp	.+178    	; 0xe0 <__bad_interrupt>
      2e:	00 00       	nop
      30:	57 c0       	rjmp	.+174    	; 0xe0 <__bad_interrupt>
      32:	00 00       	nop
      34:	55 c0       	rjmp	.+170    	; 0xe0 <__bad_interrupt>
      36:	00 00       	nop
      38:	53 c0       	rjmp	.+166    	; 0xe0 <__bad_interrupt>
      3a:	00 00       	nop
      3c:	51 c0       	rjmp	.+162    	; 0xe0 <__bad_interrupt>
      3e:	00 00       	nop
      40:	74 c0       	rjmp	.+232    	; 0x12a <__vector_16>
      42:	00 00       	nop
      44:	ef c0       	rjmp	.+478    	; 0x224 <__vector_17>
      46:	00 00       	nop
      48:	94 c0       	rjmp	.+296    	; 0x172 <__vector_18>
      4a:	00 00       	nop
      4c:	49 c0       	rjmp	.+146    	; 0xe0 <__bad_interrupt>
      4e:	00 00       	nop
      50:	47 c0       	rjmp	.+142    	; 0xe0 <__bad_interrupt>
      52:	00 00       	nop
      54:	45 c0       	rjmp	.+138    	; 0xe0 <__bad_interrupt>
      56:	00 00       	nop
      58:	43 c0       	rjmp	.+134    	; 0xe0 <__bad_interrupt>
      5a:	00 00       	nop
      5c:	41 c0       	rjmp	.+130    	; 0xe0 <__bad_interrupt>
      5e:	00 00       	nop
      60:	3f c0       	rjmp	.+126    	; 0xe0 <__bad_interrupt>
      62:	00 00       	nop
      64:	3d c0       	rjmp	.+122    	; 0xe0 <__bad_interrupt>
      66:	00 00       	nop
      68:	3b c0       	rjmp	.+118    	; 0xe0 <__bad_interrupt>
      6a:	00 00       	nop
      6c:	39 c0       	rjmp	.+114    	; 0xe0 <__bad_interrupt>
      6e:	00 00       	nop
      70:	37 c0       	rjmp	.+110    	; 0xe0 <__bad_interrupt>
      72:	00 00       	nop
      74:	35 c0       	rjmp	.+106    	; 0xe0 <__bad_interrupt>
      76:	00 00       	nop
      78:	33 c0       	rjmp	.+102    	; 0xe0 <__bad_interrupt>
      7a:	00 00       	nop
      7c:	31 c0       	rjmp	.+98     	; 0xe0 <__bad_interrupt>
      7e:	00 00       	nop
      80:	2f c0       	rjmp	.+94     	; 0xe0 <__bad_interrupt>
      82:	00 00       	nop
      84:	2d c0       	rjmp	.+90     	; 0xe0 <__bad_interrupt>
      86:	00 00       	nop
      88:	2b c0       	rjmp	.+86     	; 0xe0 <__bad_interrupt>
      8a:	00 00       	nop
      8c:	29 c0       	rjmp	.+82     	; 0xe0 <__bad_interrupt>
      8e:	00 00       	nop
      90:	27 c0       	rjmp	.+78     	; 0xe0 <__bad_interrupt>
      92:	00 00       	nop
      94:	25 c0       	rjmp	.+74     	; 0xe0 <__bad_interrupt>
	...

00000098 <__trampolines_end>:
      98:	63 64       	ori	r22, 0x43	; 67
      9a:	69 6e       	ori	r22, 0xE9	; 233
      9c:	6f 70       	andi	r22, 0x0F	; 15
      9e:	73 75       	andi	r23, 0x53	; 83
      a0:	78 58       	subi	r23, 0x88	; 136
      a2:	5b 00       	.word	0x005b	; ????

000000a4 <__ctors_end>:
      a4:	11 24       	eor	r1, r1
      a6:	1f be       	out	0x3f, r1	; 63
      a8:	cf ef       	ldi	r28, 0xFF	; 255
      aa:	d0 e2       	ldi	r29, 0x20	; 32
      ac:	de bf       	out	0x3e, r29	; 62
      ae:	cd bf       	out	0x3d, r28	; 61

000000b0 <__do_copy_data>:
      b0:	13 e0       	ldi	r17, 0x03	; 3
      b2:	a0 e0       	ldi	r26, 0x00	; 0
      b4:	b1 e0       	ldi	r27, 0x01	; 1
      b6:	ee e5       	ldi	r30, 0x5E	; 94
      b8:	f3 e1       	ldi	r31, 0x13	; 19
      ba:	00 e0       	ldi	r16, 0x00	; 0
      bc:	0b bf       	out	0x3b, r16	; 59
      be:	02 c0       	rjmp	.+4      	; 0xc4 <__do_copy_data+0x14>
      c0:	07 90       	elpm	r0, Z+
      c2:	0d 92       	st	X+, r0
      c4:	a8 37       	cpi	r26, 0x78	; 120
      c6:	b1 07       	cpc	r27, r17
      c8:	d9 f7       	brne	.-10     	; 0xc0 <__do_copy_data+0x10>

000000ca <__do_clear_bss>:
      ca:	24 e0       	ldi	r18, 0x04	; 4
      cc:	a8 e7       	ldi	r26, 0x78	; 120
      ce:	b3 e0       	ldi	r27, 0x03	; 3
      d0:	01 c0       	rjmp	.+2      	; 0xd4 <.do_clear_bss_start>

000000d2 <.do_clear_bss_loop>:
      d2:	1d 92       	st	X+, r1

000000d4 <.do_clear_bss_start>:
      d4:	ad 36       	cpi	r26, 0x6D	; 109
      d6:	b2 07       	cpc	r27, r18
      d8:	e1 f7       	brne	.-8      	; 0xd2 <.do_clear_bss_loop>
      da:	93 d1       	rcall	.+806    	; 0x402 <main>
      dc:	0c 94 ad 09 	jmp	0x135a	; 0x135a <_exit>

000000e0 <__bad_interrupt>:
      e0:	8f cf       	rjmp	.-226    	; 0x0 <__vectors>

000000e2 <SWU_RxByte>:
      e2:	80 91 8f 03 	lds	r24, 0x038F	; 0x80038f <sRxDone>
      e6:	88 23       	and	r24, r24
      e8:	e1 f3       	breq	.-8      	; 0xe2 <SWU_RxByte>
      ea:	10 92 8f 03 	sts	0x038F, r1	; 0x80038f <sRxDone>
      ee:	80 91 7a 03 	lds	r24, 0x037A	; 0x80037a <sRxData>
      f2:	90 e0       	ldi	r25, 0x00	; 0
      f4:	08 95       	ret

000000f6 <SWU_TxByte>:
      f6:	90 91 7c 03 	lds	r25, 0x037C	; 0x80037c <sTxCount>
      fa:	91 11       	cpse	r25, r1
      fc:	fc cf       	rjmp	.-8      	; 0xf6 <SWU_TxByte>
      fe:	80 95       	com	r24
     100:	80 93 7b 03 	sts	0x037B, r24	; 0x80037b <sTxData>
     104:	8a e0       	ldi	r24, 0x0A	; 10
     106:	80 93 7c 03 	sts	0x037C, r24	; 0x80037c <sTxCount>
     10a:	80 e0       	ldi	r24, 0x00	; 0
     10c:	90 e0       	ldi	r25, 0x00	; 0
     10e:	08 95       	ret

00000110 <SWU_RxByte_echo>:
     110:	cf 93       	push	r28
     112:	df 93       	push	r29
     114:	80 e0       	ldi	r24, 0x00	; 0
     116:	90 e0       	ldi	r25, 0x00	; 0
     118:	e4 df       	rcall	.-56     	; 0xe2 <SWU_RxByte>
     11a:	ec 01       	movw	r28, r24
     11c:	60 e0       	ldi	r22, 0x00	; 0
     11e:	70 e0       	ldi	r23, 0x00	; 0
     120:	ea df       	rcall	.-44     	; 0xf6 <SWU_TxByte>
     122:	ce 01       	movw	r24, r28
     124:	df 91       	pop	r29
     126:	cf 91       	pop	r28
     128:	08 95       	ret

0000012a <__vector_16>:
     12a:	1f 92       	push	r1
     12c:	0f 92       	push	r0
     12e:	0f b6       	in	r0, 0x3f	; 63
     130:	0f 92       	push	r0
     132:	11 24       	eor	r1, r1
     134:	8f 93       	push	r24
     136:	9f 93       	push	r25
     138:	80 91 86 00 	lds	r24, 0x0086	; 0x800086 <__TEXT_REGION_LENGTH__+0x7e0086>
     13c:	90 91 87 00 	lds	r25, 0x0087	; 0x800087 <__TEXT_REGION_LENGTH__+0x7e0087>
     140:	8d 53       	subi	r24, 0x3D	; 61
     142:	96 4f       	sbci	r25, 0xF6	; 246
     144:	90 93 8b 00 	sts	0x008B, r25	; 0x80008b <__TEXT_REGION_LENGTH__+0x7e008b>
     148:	80 93 8a 00 	sts	0x008A, r24	; 0x80008a <__TEXT_REGION_LENGTH__+0x7e008a>
     14c:	10 92 78 03 	sts	0x0378, r1	; 0x800378 <__data_end>
     150:	81 e0       	ldi	r24, 0x01	; 1
     152:	80 93 79 03 	sts	0x0379, r24	; 0x800379 <sRxMask>
     156:	84 e0       	ldi	r24, 0x04	; 4
     158:	86 bb       	out	0x16, r24	; 22
     15a:	4c 99       	sbic	0x09, 4	; 9
     15c:	03 c0       	rjmp	.+6      	; 0x164 <__vector_16+0x3a>
     15e:	86 e0       	ldi	r24, 0x06	; 6
     160:	80 93 6f 00 	sts	0x006F, r24	; 0x80006f <__TEXT_REGION_LENGTH__+0x7e006f>
     164:	9f 91       	pop	r25
     166:	8f 91       	pop	r24
     168:	0f 90       	pop	r0
     16a:	0f be       	out	0x3f, r0	; 63
     16c:	0f 90       	pop	r0
     16e:	1f 90       	pop	r1
     170:	18 95       	reti

00000172 <__vector_18>:
     172:	1f 92       	push	r1
     174:	0f 92       	push	r0
     176:	0f b6       	in	r0, 0x3f	; 63
     178:	0f 92       	push	r0
     17a:	11 24       	eor	r1, r1
     17c:	0b b6       	in	r0, 0x3b	; 59
     17e:	0f 92       	push	r0
     180:	2f 93       	push	r18
     182:	3f 93       	push	r19
     184:	4f 93       	push	r20
     186:	5f 93       	push	r21
     188:	6f 93       	push	r22
     18a:	7f 93       	push	r23
     18c:	8f 93       	push	r24
     18e:	9f 93       	push	r25
     190:	af 93       	push	r26
     192:	bf 93       	push	r27
     194:	ef 93       	push	r30
     196:	ff 93       	push	r31
     198:	80 91 79 03 	lds	r24, 0x0379	; 0x800379 <sRxMask>
     19c:	88 23       	and	r24, r24
     19e:	c9 f0       	breq	.+50     	; 0x1d2 <__vector_18+0x60>
     1a0:	4c 9b       	sbis	0x09, 4	; 9
     1a2:	07 c0       	rjmp	.+14     	; 0x1b2 <__vector_18+0x40>
     1a4:	90 91 79 03 	lds	r25, 0x0379	; 0x800379 <sRxMask>
     1a8:	80 91 78 03 	lds	r24, 0x0378	; 0x800378 <__data_end>
     1ac:	89 2b       	or	r24, r25
     1ae:	80 93 78 03 	sts	0x0378, r24	; 0x800378 <__data_end>
     1b2:	80 91 79 03 	lds	r24, 0x0379	; 0x800379 <sRxMask>
     1b6:	88 0f       	add	r24, r24
     1b8:	80 93 79 03 	sts	0x0379, r24	; 0x800379 <sRxMask>
     1bc:	80 91 8a 00 	lds	r24, 0x008A	; 0x80008a <__TEXT_REGION_LENGTH__+0x7e008a>
     1c0:	90 91 8b 00 	lds	r25, 0x008B	; 0x80008b <__TEXT_REGION_LENGTH__+0x7e008b>
     1c4:	8e 57       	subi	r24, 0x7E	; 126
     1c6:	99 4f       	sbci	r25, 0xF9	; 249
     1c8:	90 93 8b 00 	sts	0x008B, r25	; 0x80008b <__TEXT_REGION_LENGTH__+0x7e008b>
     1cc:	80 93 8a 00 	sts	0x008A, r24	; 0x80008a <__TEXT_REGION_LENGTH__+0x7e008a>
     1d0:	16 c0       	rjmp	.+44     	; 0x1fe <__vector_18+0x8c>
     1d2:	e0 91 7f 03 	lds	r30, 0x037F	; 0x80037f <rx_cb>
     1d6:	f0 91 80 03 	lds	r31, 0x0380	; 0x800380 <rx_cb+0x1>
     1da:	30 97       	sbiw	r30, 0x00	; 0
     1dc:	21 f0       	breq	.+8      	; 0x1e6 <__vector_18+0x74>
     1de:	80 91 78 03 	lds	r24, 0x0378	; 0x800378 <__data_end>
     1e2:	09 95       	icall
     1e4:	07 c0       	rjmp	.+14     	; 0x1f4 <__vector_18+0x82>
     1e6:	81 e0       	ldi	r24, 0x01	; 1
     1e8:	80 93 8f 03 	sts	0x038F, r24	; 0x80038f <sRxDone>
     1ec:	80 91 78 03 	lds	r24, 0x0378	; 0x800378 <__data_end>
     1f0:	80 93 7a 03 	sts	0x037A, r24	; 0x80037a <sRxData>
     1f4:	80 e2       	ldi	r24, 0x20	; 32
     1f6:	86 bb       	out	0x16, r24	; 22
     1f8:	82 e2       	ldi	r24, 0x22	; 34
     1fa:	80 93 6f 00 	sts	0x006F, r24	; 0x80006f <__TEXT_REGION_LENGTH__+0x7e006f>
     1fe:	ff 91       	pop	r31
     200:	ef 91       	pop	r30
     202:	bf 91       	pop	r27
     204:	af 91       	pop	r26
     206:	9f 91       	pop	r25
     208:	8f 91       	pop	r24
     20a:	7f 91       	pop	r23
     20c:	6f 91       	pop	r22
     20e:	5f 91       	pop	r21
     210:	4f 91       	pop	r20
     212:	3f 91       	pop	r19
     214:	2f 91       	pop	r18
     216:	0f 90       	pop	r0
     218:	0b be       	out	0x3b, r0	; 59
     21a:	0f 90       	pop	r0
     21c:	0f be       	out	0x3f, r0	; 63
     21e:	0f 90       	pop	r0
     220:	1f 90       	pop	r1
     222:	18 95       	reti

00000224 <__vector_17>:
     224:	1f 92       	push	r1
     226:	0f 92       	push	r0
     228:	0f b6       	in	r0, 0x3f	; 63
     22a:	0f 92       	push	r0
     22c:	11 24       	eor	r1, r1
     22e:	8f 93       	push	r24
     230:	9f 93       	push	r25
     232:	80 91 88 00 	lds	r24, 0x0088	; 0x800088 <__TEXT_REGION_LENGTH__+0x7e0088>
     236:	90 91 89 00 	lds	r25, 0x0089	; 0x800089 <__TEXT_REGION_LENGTH__+0x7e0089>
     23a:	8e 57       	subi	r24, 0x7E	; 126
     23c:	99 4f       	sbci	r25, 0xF9	; 249
     23e:	90 93 89 00 	sts	0x0089, r25	; 0x800089 <__TEXT_REGION_LENGTH__+0x7e0089>
     242:	80 93 88 00 	sts	0x0088, r24	; 0x800088 <__TEXT_REGION_LENGTH__+0x7e0088>
     246:	80 91 7c 03 	lds	r24, 0x037C	; 0x80037c <sTxCount>
     24a:	88 23       	and	r24, r24
     24c:	c9 f0       	breq	.+50     	; 0x280 <__vector_17+0x5c>
     24e:	80 91 7c 03 	lds	r24, 0x037C	; 0x80037c <sTxCount>
     252:	81 50       	subi	r24, 0x01	; 1
     254:	80 93 7c 03 	sts	0x037C, r24	; 0x80037c <sTxCount>
     258:	80 91 7c 03 	lds	r24, 0x037C	; 0x80037c <sTxCount>
     25c:	89 30       	cpi	r24, 0x09	; 9
     25e:	69 f0       	breq	.+26     	; 0x27a <__vector_17+0x56>
     260:	80 91 7b 03 	lds	r24, 0x037B	; 0x80037b <sTxData>
     264:	80 fd       	sbrc	r24, 0
     266:	02 c0       	rjmp	.+4      	; 0x26c <__vector_17+0x48>
     268:	80 ec       	ldi	r24, 0xC0	; 192
     26a:	01 c0       	rjmp	.+2      	; 0x26e <__vector_17+0x4a>
     26c:	80 e8       	ldi	r24, 0x80	; 128
     26e:	90 91 7b 03 	lds	r25, 0x037B	; 0x80037b <sTxData>
     272:	96 95       	lsr	r25
     274:	90 93 7b 03 	sts	0x037B, r25	; 0x80037b <sTxData>
     278:	01 c0       	rjmp	.+2      	; 0x27c <__vector_17+0x58>
     27a:	80 e8       	ldi	r24, 0x80	; 128
     27c:	80 93 80 00 	sts	0x0080, r24	; 0x800080 <__TEXT_REGION_LENGTH__+0x7e0080>
     280:	9f 91       	pop	r25
     282:	8f 91       	pop	r24
     284:	0f 90       	pop	r0
     286:	0f be       	out	0x3f, r0	; 63
     288:	0f 90       	pop	r0
     28a:	1f 90       	pop	r1
     28c:	18 95       	reti

0000028e <SWU_Initialize>:
     28e:	e1 e8       	ldi	r30, 0x81	; 129
     290:	f3 e0       	ldi	r31, 0x03	; 3
     292:	2b e7       	ldi	r18, 0x7B	; 123
     294:	30 e0       	ldi	r19, 0x00	; 0
     296:	31 87       	std	Z+9, r19	; 0x09
     298:	20 87       	std	Z+8, r18	; 0x08
     29a:	81 e7       	ldi	r24, 0x71	; 113
     29c:	90 e0       	ldi	r25, 0x00	; 0
     29e:	93 87       	std	Z+11, r25	; 0x0b
     2a0:	82 87       	std	Z+10, r24	; 0x0a
     2a2:	83 e0       	ldi	r24, 0x03	; 3
     2a4:	83 83       	std	Z+3, r24	; 0x03
     2a6:	15 86       	std	Z+13, r1	; 0x0d
     2a8:	14 86       	std	Z+12, r1	; 0x0c
     2aa:	e0 e9       	ldi	r30, 0x90	; 144
     2ac:	f3 e0       	ldi	r31, 0x03	; 3
     2ae:	31 87       	std	Z+9, r19	; 0x09
     2b0:	20 87       	std	Z+8, r18	; 0x08
     2b2:	28 e8       	ldi	r18, 0x88	; 136
     2b4:	30 e0       	ldi	r19, 0x00	; 0
     2b6:	33 87       	std	Z+11, r19	; 0x0b
     2b8:	22 87       	std	Z+10, r18	; 0x0a
     2ba:	83 83       	std	Z+3, r24	; 0x03
     2bc:	15 86       	std	Z+13, r1	; 0x0d
     2be:	14 86       	std	Z+12, r1	; 0x0c
     2c0:	80 91 84 00 	lds	r24, 0x0084	; 0x800084 <__TEXT_REGION_LENGTH__+0x7e0084>
     2c4:	90 91 85 00 	lds	r25, 0x0085	; 0x800085 <__TEXT_REGION_LENGTH__+0x7e0085>
     2c8:	01 96       	adiw	r24, 0x01	; 1
     2ca:	90 93 89 00 	sts	0x0089, r25	; 0x800089 <__TEXT_REGION_LENGTH__+0x7e0089>
     2ce:	80 93 88 00 	sts	0x0088, r24	; 0x800088 <__TEXT_REGION_LENGTH__+0x7e0088>
     2d2:	80 ec       	ldi	r24, 0xC0	; 192
     2d4:	80 93 80 00 	sts	0x0080, r24	; 0x800080 <__TEXT_REGION_LENGTH__+0x7e0080>
     2d8:	81 e8       	ldi	r24, 0x81	; 129
     2da:	80 93 81 00 	sts	0x0081, r24	; 0x800081 <__TEXT_REGION_LENGTH__+0x7e0081>
     2de:	80 e2       	ldi	r24, 0x20	; 32
     2e0:	86 bb       	out	0x16, r24	; 22
     2e2:	82 e2       	ldi	r24, 0x22	; 34
     2e4:	80 93 6f 00 	sts	0x006F, r24	; 0x80006f <__TEXT_REGION_LENGTH__+0x7e006f>
     2e8:	10 92 7c 03 	sts	0x037C, r1	; 0x80037c <sTxCount>
     2ec:	10 92 8f 03 	sts	0x038F, r1	; 0x80038f <sRxDone>
     2f0:	25 9a       	sbi	0x04, 5	; 4
     2f2:	78 94       	sei
     2f4:	08 95       	ret

000002f6 <SWU_RegisterRxCb>:
     2f6:	90 93 80 03 	sts	0x0380, r25	; 0x800380 <rx_cb+0x1>
     2fa:	80 93 7f 03 	sts	0x037F, r24	; 0x80037f <rx_cb>
     2fe:	08 95       	ret

00000300 <SWU_RxByte_echo_isprint>:
     300:	cf 93       	push	r28
     302:	df 93       	push	r29
     304:	80 e0       	ldi	r24, 0x00	; 0
     306:	90 e0       	ldi	r25, 0x00	; 0
     308:	ec de       	rcall	.-552    	; 0xe2 <SWU_RxByte>
     30a:	ec 01       	movw	r28, r24
     30c:	ac d1       	rcall	.+856    	; 0x666 <isprint>
     30e:	89 2b       	or	r24, r25
     310:	21 f0       	breq	.+8      	; 0x31a <SWU_RxByte_echo_isprint+0x1a>
     312:	60 e0       	ldi	r22, 0x00	; 0
     314:	70 e0       	ldi	r23, 0x00	; 0
     316:	8c 2f       	mov	r24, r28
     318:	ee de       	rcall	.-548    	; 0xf6 <SWU_TxByte>
     31a:	ce 01       	movw	r24, r28
     31c:	df 91       	pop	r29
     31e:	cf 91       	pop	r28
     320:	08 95       	ret

00000322 <SWU_RxByte_echo_isprint_nl>:
     322:	cf 93       	push	r28
     324:	df 93       	push	r29
     326:	80 e0       	ldi	r24, 0x00	; 0
     328:	90 e0       	ldi	r25, 0x00	; 0
     32a:	ea df       	rcall	.-44     	; 0x300 <SWU_RxByte_echo_isprint>
     32c:	ec 01       	movw	r28, r24
     32e:	0d 97       	sbiw	r24, 0x0d	; 13
     330:	41 f4       	brne	.+16     	; 0x342 <SWU_RxByte_echo_isprint_nl+0x20>
     332:	60 e0       	ldi	r22, 0x00	; 0
     334:	70 e0       	ldi	r23, 0x00	; 0
     336:	8d e0       	ldi	r24, 0x0D	; 13
     338:	de de       	rcall	.-580    	; 0xf6 <SWU_TxByte>
     33a:	60 e0       	ldi	r22, 0x00	; 0
     33c:	70 e0       	ldi	r23, 0x00	; 0
     33e:	8a e0       	ldi	r24, 0x0A	; 10
     340:	da de       	rcall	.-588    	; 0xf6 <SWU_TxByte>
     342:	ce 01       	movw	r24, r28
     344:	df 91       	pop	r29
     346:	cf 91       	pop	r28
     348:	08 95       	ret

0000034a <SWU_RxBuffer>:
     34a:	0f 93       	push	r16
     34c:	1f 93       	push	r17
     34e:	cf 93       	push	r28
     350:	df 93       	push	r29
     352:	ec 01       	movw	r28, r24
     354:	8c 01       	movw	r16, r24
     356:	06 0f       	add	r16, r22
     358:	11 1d       	adc	r17, r1
     35a:	c0 17       	cp	r28, r16
     35c:	d1 07       	cpc	r29, r17
     35e:	29 f0       	breq	.+10     	; 0x36a <SWU_RxBuffer+0x20>
     360:	80 e0       	ldi	r24, 0x00	; 0
     362:	90 e0       	ldi	r25, 0x00	; 0
     364:	be de       	rcall	.-644    	; 0xe2 <SWU_RxByte>
     366:	89 93       	st	Y+, r24
     368:	f8 cf       	rjmp	.-16     	; 0x35a <SWU_RxBuffer+0x10>
     36a:	df 91       	pop	r29
     36c:	cf 91       	pop	r28
     36e:	1f 91       	pop	r17
     370:	0f 91       	pop	r16
     372:	08 95       	ret

00000374 <SWU_RxBuffer_echo>:
     374:	0f 93       	push	r16
     376:	1f 93       	push	r17
     378:	cf 93       	push	r28
     37a:	df 93       	push	r29
     37c:	ec 01       	movw	r28, r24
     37e:	8c 01       	movw	r16, r24
     380:	06 0f       	add	r16, r22
     382:	11 1d       	adc	r17, r1
     384:	c0 17       	cp	r28, r16
     386:	d1 07       	cpc	r29, r17
     388:	29 f0       	breq	.+10     	; 0x394 <SWU_RxBuffer_echo+0x20>
     38a:	80 e0       	ldi	r24, 0x00	; 0
     38c:	90 e0       	ldi	r25, 0x00	; 0
     38e:	c0 de       	rcall	.-640    	; 0x110 <SWU_RxByte_echo>
     390:	89 93       	st	Y+, r24
     392:	f8 cf       	rjmp	.-16     	; 0x384 <SWU_RxBuffer_echo+0x10>
     394:	df 91       	pop	r29
     396:	cf 91       	pop	r28
     398:	1f 91       	pop	r17
     39a:	0f 91       	pop	r16
     39c:	08 95       	ret

0000039e <SWU_TxBuffer>:
     39e:	0f 93       	push	r16
     3a0:	1f 93       	push	r17
     3a2:	cf 93       	push	r28
     3a4:	df 93       	push	r29
     3a6:	ec 01       	movw	r28, r24
     3a8:	8c 01       	movw	r16, r24
     3aa:	06 0f       	add	r16, r22
     3ac:	11 1d       	adc	r17, r1
     3ae:	c0 17       	cp	r28, r16
     3b0:	d1 07       	cpc	r29, r17
     3b2:	29 f0       	breq	.+10     	; 0x3be <SWU_TxBuffer+0x20>
     3b4:	60 e0       	ldi	r22, 0x00	; 0
     3b6:	70 e0       	ldi	r23, 0x00	; 0
     3b8:	89 91       	ld	r24, Y+
     3ba:	9d de       	rcall	.-710    	; 0xf6 <SWU_TxByte>
     3bc:	f8 cf       	rjmp	.-16     	; 0x3ae <SWU_TxBuffer+0x10>
     3be:	df 91       	pop	r29
     3c0:	cf 91       	pop	r28
     3c2:	1f 91       	pop	r17
     3c4:	0f 91       	pop	r16
     3c6:	08 95       	ret

000003c8 <my_rx_handler>:
     3c8:	48 2f       	mov	r20, r24
     3ca:	80 91 7d 03 	lds	r24, 0x037D	; 0x80037d <i.2138>
     3ce:	90 91 7e 03 	lds	r25, 0x037E	; 0x80037e <i.2138+0x1>
     3d2:	67 ec       	ldi	r22, 0xC7	; 199
     3d4:	70 e0       	ldi	r23, 0x00	; 0
     3d6:	31 d1       	rcall	.+610    	; 0x63a <__udivmodhi4>
     3d8:	9c 01       	movw	r18, r24
     3da:	fc 01       	movw	r30, r24
     3dc:	e2 56       	subi	r30, 0x62	; 98
     3de:	fc 4f       	sbci	r31, 0xFC	; 252
     3e0:	40 83       	st	Z, r20
     3e2:	80 93 00 01 	sts	0x0100, r24	; 0x800100 <__data_start>
     3e6:	2f 5f       	subi	r18, 0xFF	; 255
     3e8:	3f 4f       	sbci	r19, 0xFF	; 255
     3ea:	30 93 7e 03 	sts	0x037E, r19	; 0x80037e <i.2138+0x1>
     3ee:	20 93 7d 03 	sts	0x037D, r18	; 0x80037d <i.2138>
     3f2:	4d 30       	cpi	r20, 0x0D	; 13
     3f4:	11 f0       	breq	.+4      	; 0x3fa <my_rx_handler+0x32>
     3f6:	4a 30       	cpi	r20, 0x0A	; 10
     3f8:	19 f4       	brne	.+6      	; 0x400 <__LOCK_REGION_LENGTH__>
     3fa:	81 e0       	ldi	r24, 0x01	; 1
     3fc:	80 93 66 04 	sts	0x0466, r24	; 0x800466 <rx_flag>
     400:	08 95       	ret

00000402 <main>:
     402:	cf 93       	push	r28
     404:	df 93       	push	r29
     406:	00 d0       	rcall	.+0      	; 0x408 <main+0x6>
     408:	00 d0       	rcall	.+0      	; 0x40a <main+0x8>
     40a:	00 d0       	rcall	.+0      	; 0x40c <main+0xa>
     40c:	cd b7       	in	r28, 0x3d	; 61
     40e:	de b7       	in	r29, 0x3e	; 62
     410:	84 b7       	in	r24, 0x34	; 52
     412:	87 7f       	andi	r24, 0xF7	; 247
     414:	84 bf       	out	0x34, r24	; 52
     416:	0f b6       	in	r0, 0x3f	; 63
     418:	f8 94       	cli
     41a:	a8 95       	wdr
     41c:	80 91 60 00 	lds	r24, 0x0060	; 0x800060 <__TEXT_REGION_LENGTH__+0x7e0060>
     420:	88 61       	ori	r24, 0x18	; 24
     422:	80 93 60 00 	sts	0x0060, r24	; 0x800060 <__TEXT_REGION_LENGTH__+0x7e0060>
     426:	10 92 60 00 	sts	0x0060, r1	; 0x800060 <__TEXT_REGION_LENGTH__+0x7e0060>
     42a:	0f be       	out	0x3f, r0	; 63
     42c:	80 e8       	ldi	r24, 0x80	; 128
     42e:	80 93 61 00 	sts	0x0061, r24	; 0x800061 <__TEXT_REGION_LENGTH__+0x7e0061>
     432:	10 92 61 00 	sts	0x0061, r1	; 0x800061 <__TEXT_REGION_LENGTH__+0x7e0061>
     436:	2b df       	rcall	.-426    	; 0x28e <SWU_Initialize>
     438:	2f ef       	ldi	r18, 0xFF	; 255
     43a:	83 ed       	ldi	r24, 0xD3	; 211
     43c:	90 e3       	ldi	r25, 0x30	; 48
     43e:	21 50       	subi	r18, 0x01	; 1
     440:	80 40       	sbci	r24, 0x00	; 0
     442:	90 40       	sbci	r25, 0x00	; 0
     444:	e1 f7       	brne	.-8      	; 0x43e <main+0x3c>
     446:	00 c0       	rjmp	.+0      	; 0x448 <main+0x46>
     448:	00 00       	nop
     44a:	81 e8       	ldi	r24, 0x81	; 129
     44c:	93 e0       	ldi	r25, 0x03	; 3
     44e:	90 93 6a 04 	sts	0x046A, r25	; 0x80046a <__iob+0x3>
     452:	80 93 69 04 	sts	0x0469, r24	; 0x800469 <__iob+0x2>
     456:	90 93 68 04 	sts	0x0468, r25	; 0x800468 <__iob+0x1>
     45a:	80 93 67 04 	sts	0x0467, r24	; 0x800467 <__iob>
     45e:	04 e1       	ldi	r16, 0x14	; 20
     460:	10 e0       	ldi	r17, 0x00	; 0
     462:	60 e0       	ldi	r22, 0x00	; 0
     464:	70 e0       	ldi	r23, 0x00	; 0
     466:	84 e6       	ldi	r24, 0x64	; 100
     468:	46 de       	rcall	.-884    	; 0xf6 <SWU_TxByte>
     46a:	01 50       	subi	r16, 0x01	; 1
     46c:	11 09       	sbc	r17, r1
     46e:	c9 f7       	brne	.-14     	; 0x462 <main+0x60>
     470:	60 e0       	ldi	r22, 0x00	; 0
     472:	70 e0       	ldi	r23, 0x00	; 0
     474:	8d e0       	ldi	r24, 0x0D	; 13
     476:	3f de       	rcall	.-898    	; 0xf6 <SWU_TxByte>
     478:	60 e0       	ldi	r22, 0x00	; 0
     47a:	70 e0       	ldi	r23, 0x00	; 0
     47c:	8a e0       	ldi	r24, 0x0A	; 10
     47e:	3b de       	rcall	.-906    	; 0xf6 <SWU_TxByte>
     480:	81 e0       	ldi	r24, 0x01	; 1
     482:	91 e0       	ldi	r25, 0x01	; 1
     484:	9f 93       	push	r25
     486:	8f 93       	push	r24
     488:	83 e0       	ldi	r24, 0x03	; 3
     48a:	91 e0       	ldi	r25, 0x01	; 1
     48c:	9f 93       	push	r25
     48e:	8f 93       	push	r24
     490:	2b d1       	rcall	.+598    	; 0x6e8 <printf>
     492:	61 e8       	ldi	r22, 0x81	; 129
     494:	73 e0       	ldi	r23, 0x03	; 3
     496:	82 e2       	ldi	r24, 0x22	; 34
     498:	91 e0       	ldi	r25, 0x01	; 1
     49a:	eb d0       	rcall	.+470    	; 0x672 <fputs>
     49c:	8b e3       	ldi	r24, 0x3B	; 59
     49e:	91 e0       	ldi	r25, 0x01	; 1
     4a0:	36 d1       	rcall	.+620    	; 0x70e <puts>
     4a2:	6f e1       	ldi	r22, 0x1F	; 31
     4a4:	82 e5       	ldi	r24, 0x52	; 82
     4a6:	91 e0       	ldi	r25, 0x01	; 1
     4a8:	7a df       	rcall	.-268    	; 0x39e <SWU_TxBuffer>
     4aa:	84 e0       	ldi	r24, 0x04	; 4
     4ac:	d8 2e       	mov	r13, r24
     4ae:	8e 01       	movw	r16, r28
     4b0:	0f 5f       	subi	r16, 0xFF	; 255
     4b2:	1f 4f       	sbci	r17, 0xFF	; 255
     4b4:	f8 01       	movw	r30, r16
     4b6:	2d 2d       	mov	r18, r13
     4b8:	11 92       	st	Z+, r1
     4ba:	2a 95       	dec	r18
     4bc:	e9 f7       	brne	.-6      	; 0x4b8 <main+0xb6>
     4be:	82 e7       	ldi	r24, 0x72	; 114
     4c0:	91 e0       	ldi	r25, 0x01	; 1
     4c2:	9f 93       	push	r25
     4c4:	8f 93       	push	r24
     4c6:	10 d1       	rcall	.+544    	; 0x6e8 <printf>
     4c8:	63 e0       	ldi	r22, 0x03	; 3
     4ca:	c8 01       	movw	r24, r16
     4cc:	53 df       	rcall	.-346    	; 0x374 <SWU_RxBuffer_echo>
     4ce:	1f 93       	push	r17
     4d0:	0f 93       	push	r16
     4d2:	90 ea       	ldi	r25, 0xA0	; 160
     4d4:	e9 2e       	mov	r14, r25
     4d6:	91 e0       	ldi	r25, 0x01	; 1
     4d8:	f9 2e       	mov	r15, r25
     4da:	ff 92       	push	r15
     4dc:	ef 92       	push	r14
     4de:	04 d1       	rcall	.+520    	; 0x6e8 <printf>
     4e0:	f8 01       	movw	r30, r16
     4e2:	11 92       	st	Z+, r1
     4e4:	da 94       	dec	r13
     4e6:	e9 f7       	brne	.-6      	; 0x4e2 <main+0xe0>
     4e8:	85 eb       	ldi	r24, 0xB5	; 181
     4ea:	91 e0       	ldi	r25, 0x01	; 1
     4ec:	9f 93       	push	r25
     4ee:	8f 93       	push	r24
     4f0:	fb d0       	rcall	.+502    	; 0x6e8 <printf>
     4f2:	63 e0       	ldi	r22, 0x03	; 3
     4f4:	c8 01       	movw	r24, r16
     4f6:	29 df       	rcall	.-430    	; 0x34a <SWU_RxBuffer>
     4f8:	1f 93       	push	r17
     4fa:	0f 93       	push	r16
     4fc:	ff 92       	push	r15
     4fe:	ef 92       	push	r14
     500:	f3 d0       	rcall	.+486    	; 0x6e8 <printf>
     502:	1e 82       	std	Y+6, r1	; 0x06
     504:	1d 82       	std	Y+5, r1	; 0x05
     506:	84 ee       	ldi	r24, 0xE4	; 228
     508:	91 e0       	ldi	r25, 0x01	; 1
     50a:	9f 93       	push	r25
     50c:	8f 93       	push	r24
     50e:	ec d0       	rcall	.+472    	; 0x6e8 <printf>
     510:	6e 01       	movw	r12, r28
     512:	f5 e0       	ldi	r31, 0x05	; 5
     514:	cf 0e       	add	r12, r31
     516:	d1 1c       	adc	r13, r1
     518:	df 92       	push	r13
     51a:	cf 92       	push	r12
     51c:	26 e2       	ldi	r18, 0x26	; 38
     51e:	e2 2e       	mov	r14, r18
     520:	22 e0       	ldi	r18, 0x02	; 2
     522:	f2 2e       	mov	r15, r18
     524:	ff 92       	push	r15
     526:	ef 92       	push	r14
     528:	30 e9       	ldi	r19, 0x90	; 144
     52a:	a3 2e       	mov	r10, r19
     52c:	33 e0       	ldi	r19, 0x03	; 3
     52e:	b3 2e       	mov	r11, r19
     530:	bf 92       	push	r11
     532:	af 92       	push	r10
     534:	ca d0       	rcall	.+404    	; 0x6ca <fscanf>
     536:	8e 81       	ldd	r24, Y+6	; 0x06
     538:	8f 93       	push	r24
     53a:	8d 81       	ldd	r24, Y+5	; 0x05
     53c:	8f 93       	push	r24
     53e:	09 e2       	ldi	r16, 0x29	; 41
     540:	12 e0       	ldi	r17, 0x02	; 2
     542:	1f 93       	push	r17
     544:	0f 93       	push	r16
     546:	d0 d0       	rcall	.+416    	; 0x6e8 <printf>
     548:	1e 82       	std	Y+6, r1	; 0x06
     54a:	1d 82       	std	Y+5, r1	; 0x05
     54c:	81 e4       	ldi	r24, 0x41	; 65
     54e:	92 e0       	ldi	r25, 0x02	; 2
     550:	9f 93       	push	r25
     552:	8f 93       	push	r24
     554:	c9 d0       	rcall	.+402    	; 0x6e8 <printf>
     556:	df 92       	push	r13
     558:	cf 92       	push	r12
     55a:	ff 92       	push	r15
     55c:	ef 92       	push	r14
     55e:	07 d1       	rcall	.+526    	; 0x76e <scanf>
     560:	0f b6       	in	r0, 0x3f	; 63
     562:	f8 94       	cli
     564:	de bf       	out	0x3e, r29	; 62
     566:	0f be       	out	0x3f, r0	; 63
     568:	cd bf       	out	0x3d, r28	; 61
     56a:	8e 81       	ldd	r24, Y+6	; 0x06
     56c:	8f 93       	push	r24
     56e:	8d 81       	ldd	r24, Y+5	; 0x05
     570:	8f 93       	push	r24
     572:	1f 93       	push	r17
     574:	0f 93       	push	r16
     576:	b8 d0       	rcall	.+368    	; 0x6e8 <printf>
     578:	b0 92 6a 04 	sts	0x046A, r11	; 0x80046a <__iob+0x3>
     57c:	a0 92 69 04 	sts	0x0469, r10	; 0x800469 <__iob+0x2>
     580:	b0 92 68 04 	sts	0x0468, r11	; 0x800468 <__iob+0x1>
     584:	a0 92 67 04 	sts	0x0467, r10	; 0x800467 <__iob>
     588:	1e 82       	std	Y+6, r1	; 0x06
     58a:	1d 82       	std	Y+5, r1	; 0x05
     58c:	84 e8       	ldi	r24, 0x84	; 132
     58e:	92 e0       	ldi	r25, 0x02	; 2
     590:	9f 93       	push	r25
     592:	8f 93       	push	r24
     594:	a9 d0       	rcall	.+338    	; 0x6e8 <printf>
     596:	df 92       	push	r13
     598:	cf 92       	push	r12
     59a:	ff 92       	push	r15
     59c:	ef 92       	push	r14
     59e:	e7 d0       	rcall	.+462    	; 0x76e <scanf>
     5a0:	8e 81       	ldd	r24, Y+6	; 0x06
     5a2:	8f 93       	push	r24
     5a4:	8d 81       	ldd	r24, Y+5	; 0x05
     5a6:	8f 93       	push	r24
     5a8:	1f 93       	push	r17
     5aa:	0f 93       	push	r16
     5ac:	9d d0       	rcall	.+314    	; 0x6e8 <printf>
     5ae:	8c ec       	ldi	r24, 0xCC	; 204
     5b0:	92 e0       	ldi	r25, 0x02	; 2
     5b2:	ad d0       	rcall	.+346    	; 0x70e <puts>
     5b4:	10 92 66 04 	sts	0x0466, r1	; 0x800466 <rx_flag>
     5b8:	10 91 00 01 	lds	r17, 0x0100	; 0x800100 <__data_start>
     5bc:	84 ee       	ldi	r24, 0xE4	; 228
     5be:	91 e0       	ldi	r25, 0x01	; 1
     5c0:	9a de       	rcall	.-716    	; 0x2f6 <SWU_RegisterRxCb>
     5c2:	0f b6       	in	r0, 0x3f	; 63
     5c4:	f8 94       	cli
     5c6:	de bf       	out	0x3e, r29	; 62
     5c8:	0f be       	out	0x3f, r0	; 63
     5ca:	cd bf       	out	0x3d, r28	; 61
     5cc:	4e e9       	ldi	r20, 0x9E	; 158
     5ce:	e4 2e       	mov	r14, r20
     5d0:	43 e0       	ldi	r20, 0x03	; 3
     5d2:	f4 2e       	mov	r15, r20
     5d4:	5a e0       	ldi	r21, 0x0A	; 10
     5d6:	c5 2e       	mov	r12, r21
     5d8:	53 e0       	ldi	r21, 0x03	; 3
     5da:	d5 2e       	mov	r13, r21
     5dc:	80 91 66 04 	lds	r24, 0x0466	; 0x800466 <rx_flag>
     5e0:	81 11       	cpse	r24, r1
     5e2:	10 c0       	rjmp	.+32     	; 0x604 <main+0x202>
     5e4:	80 91 00 01 	lds	r24, 0x0100	; 0x800100 <__data_start>
     5e8:	18 17       	cp	r17, r24
     5ea:	c1 f3       	breq	.-16     	; 0x5dc <main+0x1da>
     5ec:	10 91 00 01 	lds	r17, 0x0100	; 0x800100 <__data_start>
     5f0:	ff 92       	push	r15
     5f2:	ef 92       	push	r14
     5f4:	df 92       	push	r13
     5f6:	cf 92       	push	r12
     5f8:	77 d0       	rcall	.+238    	; 0x6e8 <printf>
     5fa:	0f 90       	pop	r0
     5fc:	0f 90       	pop	r0
     5fe:	0f 90       	pop	r0
     600:	0f 90       	pop	r0
     602:	ec cf       	rjmp	.-40     	; 0x5dc <main+0x1da>
     604:	80 e0       	ldi	r24, 0x00	; 0
     606:	90 e0       	ldi	r25, 0x00	; 0
     608:	76 de       	rcall	.-788    	; 0x2f6 <SWU_RegisterRxCb>
     60a:	8e e9       	ldi	r24, 0x9E	; 158
     60c:	93 e0       	ldi	r25, 0x03	; 3
     60e:	9f 93       	push	r25
     610:	8f 93       	push	r24
     612:	8c e1       	ldi	r24, 0x1C	; 28
     614:	93 e0       	ldi	r25, 0x03	; 3
     616:	9f 93       	push	r25
     618:	8f 93       	push	r24
     61a:	66 d0       	rcall	.+204    	; 0x6e8 <printf>
     61c:	80 e5       	ldi	r24, 0x50	; 80
     61e:	93 e0       	ldi	r25, 0x03	; 3
     620:	76 d0       	rcall	.+236    	; 0x70e <puts>
     622:	0f 90       	pop	r0
     624:	0f 90       	pop	r0
     626:	0f 90       	pop	r0
     628:	0f 90       	pop	r0
     62a:	80 91 8f 03 	lds	r24, 0x038F	; 0x80038f <sRxDone>
     62e:	88 23       	and	r24, r24
     630:	e1 f3       	breq	.-8      	; 0x62a <main+0x228>
     632:	80 e0       	ldi	r24, 0x00	; 0
     634:	90 e0       	ldi	r25, 0x00	; 0
     636:	75 de       	rcall	.-790    	; 0x322 <SWU_RxByte_echo_isprint_nl>
     638:	f8 cf       	rjmp	.-16     	; 0x62a <main+0x228>

0000063a <__udivmodhi4>:
     63a:	aa 1b       	sub	r26, r26
     63c:	bb 1b       	sub	r27, r27
     63e:	51 e1       	ldi	r21, 0x11	; 17
     640:	07 c0       	rjmp	.+14     	; 0x650 <__udivmodhi4_ep>

00000642 <__udivmodhi4_loop>:
     642:	aa 1f       	adc	r26, r26
     644:	bb 1f       	adc	r27, r27
     646:	a6 17       	cp	r26, r22
     648:	b7 07       	cpc	r27, r23
     64a:	10 f0       	brcs	.+4      	; 0x650 <__udivmodhi4_ep>
     64c:	a6 1b       	sub	r26, r22
     64e:	b7 0b       	sbc	r27, r23

00000650 <__udivmodhi4_ep>:
     650:	88 1f       	adc	r24, r24
     652:	99 1f       	adc	r25, r25
     654:	5a 95       	dec	r21
     656:	a9 f7       	brne	.-22     	; 0x642 <__udivmodhi4_loop>
     658:	80 95       	com	r24
     65a:	90 95       	com	r25
     65c:	bc 01       	movw	r22, r24
     65e:	cd 01       	movw	r24, r26
     660:	08 95       	ret

00000662 <isgraph>:
     662:	80 32       	cpi	r24, 0x20	; 32
     664:	09 f0       	breq	.+2      	; 0x668 <isprint+0x2>

00000666 <isprint>:
     666:	91 11       	cpse	r25, r1
     668:	5b c5       	rjmp	.+2742   	; 0x1120 <__ctype_isfalse>
     66a:	80 52       	subi	r24, 0x20	; 32
     66c:	8f 55       	subi	r24, 0x5F	; 95
     66e:	e0 f7       	brcc	.-8      	; 0x668 <isprint+0x2>
     670:	08 95       	ret

00000672 <fputs>:
     672:	ef 92       	push	r14
     674:	ff 92       	push	r15
     676:	0f 93       	push	r16
     678:	1f 93       	push	r17
     67a:	cf 93       	push	r28
     67c:	df 93       	push	r29
     67e:	db 01       	movw	r26, r22
     680:	13 96       	adiw	r26, 0x03	; 3
     682:	2c 91       	ld	r18, X
     684:	21 ff       	sbrs	r18, 1
     686:	18 c0       	rjmp	.+48     	; 0x6b8 <fputs+0x46>
     688:	8b 01       	movw	r16, r22
     68a:	7c 01       	movw	r14, r24
     68c:	d0 e0       	ldi	r29, 0x00	; 0
     68e:	c0 e0       	ldi	r28, 0x00	; 0
     690:	f7 01       	movw	r30, r14
     692:	81 91       	ld	r24, Z+
     694:	7f 01       	movw	r14, r30
     696:	88 23       	and	r24, r24
     698:	61 f0       	breq	.+24     	; 0x6b2 <fputs+0x40>
     69a:	d8 01       	movw	r26, r16
     69c:	18 96       	adiw	r26, 0x08	; 8
     69e:	ed 91       	ld	r30, X+
     6a0:	fc 91       	ld	r31, X
     6a2:	19 97       	sbiw	r26, 0x09	; 9
     6a4:	b8 01       	movw	r22, r16
     6a6:	09 95       	icall
     6a8:	89 2b       	or	r24, r25
     6aa:	91 f3       	breq	.-28     	; 0x690 <fputs+0x1e>
     6ac:	df ef       	ldi	r29, 0xFF	; 255
     6ae:	cf ef       	ldi	r28, 0xFF	; 255
     6b0:	ef cf       	rjmp	.-34     	; 0x690 <fputs+0x1e>
     6b2:	8d 2f       	mov	r24, r29
     6b4:	9c 2f       	mov	r25, r28
     6b6:	02 c0       	rjmp	.+4      	; 0x6bc <fputs+0x4a>
     6b8:	8f ef       	ldi	r24, 0xFF	; 255
     6ba:	9f ef       	ldi	r25, 0xFF	; 255
     6bc:	df 91       	pop	r29
     6be:	cf 91       	pop	r28
     6c0:	1f 91       	pop	r17
     6c2:	0f 91       	pop	r16
     6c4:	ff 90       	pop	r15
     6c6:	ef 90       	pop	r14
     6c8:	08 95       	ret

000006ca <fscanf>:
     6ca:	cf 93       	push	r28
     6cc:	df 93       	push	r29
     6ce:	cd b7       	in	r28, 0x3d	; 61
     6d0:	de b7       	in	r29, 0x3e	; 62
     6d2:	ae 01       	movw	r20, r28
     6d4:	47 5f       	subi	r20, 0xF7	; 247
     6d6:	5f 4f       	sbci	r21, 0xFF	; 255
     6d8:	6f 81       	ldd	r22, Y+7	; 0x07
     6da:	78 85       	ldd	r23, Y+8	; 0x08
     6dc:	8d 81       	ldd	r24, Y+5	; 0x05
     6de:	9e 81       	ldd	r25, Y+6	; 0x06
     6e0:	08 d4       	rcall	.+2064   	; 0xef2 <vfscanf>
     6e2:	df 91       	pop	r29
     6e4:	cf 91       	pop	r28
     6e6:	08 95       	ret

000006e8 <printf>:
     6e8:	cf 93       	push	r28
     6ea:	df 93       	push	r29
     6ec:	cd b7       	in	r28, 0x3d	; 61
     6ee:	de b7       	in	r29, 0x3e	; 62
     6f0:	ae 01       	movw	r20, r28
     6f2:	4b 5f       	subi	r20, 0xFB	; 251
     6f4:	5f 4f       	sbci	r21, 0xFF	; 255
     6f6:	fa 01       	movw	r30, r20
     6f8:	61 91       	ld	r22, Z+
     6fa:	71 91       	ld	r23, Z+
     6fc:	af 01       	movw	r20, r30
     6fe:	80 91 69 04 	lds	r24, 0x0469	; 0x800469 <__iob+0x2>
     702:	90 91 6a 04 	lds	r25, 0x046A	; 0x80046a <__iob+0x3>
     706:	46 d0       	rcall	.+140    	; 0x794 <vfprintf>
     708:	df 91       	pop	r29
     70a:	cf 91       	pop	r28
     70c:	08 95       	ret

0000070e <puts>:
     70e:	0f 93       	push	r16
     710:	1f 93       	push	r17
     712:	cf 93       	push	r28
     714:	df 93       	push	r29
     716:	e0 91 69 04 	lds	r30, 0x0469	; 0x800469 <__iob+0x2>
     71a:	f0 91 6a 04 	lds	r31, 0x046A	; 0x80046a <__iob+0x3>
     71e:	23 81       	ldd	r18, Z+3	; 0x03
     720:	21 ff       	sbrs	r18, 1
     722:	1b c0       	rjmp	.+54     	; 0x75a <puts+0x4c>
     724:	8c 01       	movw	r16, r24
     726:	d0 e0       	ldi	r29, 0x00	; 0
     728:	c0 e0       	ldi	r28, 0x00	; 0
     72a:	f8 01       	movw	r30, r16
     72c:	81 91       	ld	r24, Z+
     72e:	8f 01       	movw	r16, r30
     730:	60 91 69 04 	lds	r22, 0x0469	; 0x800469 <__iob+0x2>
     734:	70 91 6a 04 	lds	r23, 0x046A	; 0x80046a <__iob+0x3>
     738:	db 01       	movw	r26, r22
     73a:	18 96       	adiw	r26, 0x08	; 8
     73c:	ed 91       	ld	r30, X+
     73e:	fc 91       	ld	r31, X
     740:	19 97       	sbiw	r26, 0x09	; 9
     742:	88 23       	and	r24, r24
     744:	31 f0       	breq	.+12     	; 0x752 <puts+0x44>
     746:	09 95       	icall
     748:	89 2b       	or	r24, r25
     74a:	79 f3       	breq	.-34     	; 0x72a <puts+0x1c>
     74c:	df ef       	ldi	r29, 0xFF	; 255
     74e:	cf ef       	ldi	r28, 0xFF	; 255
     750:	ec cf       	rjmp	.-40     	; 0x72a <puts+0x1c>
     752:	8a e0       	ldi	r24, 0x0A	; 10
     754:	09 95       	icall
     756:	89 2b       	or	r24, r25
     758:	19 f0       	breq	.+6      	; 0x760 <puts+0x52>
     75a:	8f ef       	ldi	r24, 0xFF	; 255
     75c:	9f ef       	ldi	r25, 0xFF	; 255
     75e:	02 c0       	rjmp	.+4      	; 0x764 <puts+0x56>
     760:	8d 2f       	mov	r24, r29
     762:	9c 2f       	mov	r25, r28
     764:	df 91       	pop	r29
     766:	cf 91       	pop	r28
     768:	1f 91       	pop	r17
     76a:	0f 91       	pop	r16
     76c:	08 95       	ret

0000076e <scanf>:
     76e:	cf 93       	push	r28
     770:	df 93       	push	r29
     772:	cd b7       	in	r28, 0x3d	; 61
     774:	de b7       	in	r29, 0x3e	; 62
     776:	ae 01       	movw	r20, r28
     778:	4b 5f       	subi	r20, 0xFB	; 251
     77a:	5f 4f       	sbci	r21, 0xFF	; 255
     77c:	fa 01       	movw	r30, r20
     77e:	61 91       	ld	r22, Z+
     780:	71 91       	ld	r23, Z+
     782:	af 01       	movw	r20, r30
     784:	80 91 67 04 	lds	r24, 0x0467	; 0x800467 <__iob>
     788:	90 91 68 04 	lds	r25, 0x0468	; 0x800468 <__iob+0x1>
     78c:	b2 d3       	rcall	.+1892   	; 0xef2 <vfscanf>
     78e:	df 91       	pop	r29
     790:	cf 91       	pop	r28
     792:	08 95       	ret

00000794 <vfprintf>:
     794:	2f 92       	push	r2
     796:	3f 92       	push	r3
     798:	4f 92       	push	r4
     79a:	5f 92       	push	r5
     79c:	6f 92       	push	r6
     79e:	7f 92       	push	r7
     7a0:	8f 92       	push	r8
     7a2:	9f 92       	push	r9
     7a4:	af 92       	push	r10
     7a6:	bf 92       	push	r11
     7a8:	cf 92       	push	r12
     7aa:	df 92       	push	r13
     7ac:	ef 92       	push	r14
     7ae:	ff 92       	push	r15
     7b0:	0f 93       	push	r16
     7b2:	1f 93       	push	r17
     7b4:	cf 93       	push	r28
     7b6:	df 93       	push	r29
     7b8:	cd b7       	in	r28, 0x3d	; 61
     7ba:	de b7       	in	r29, 0x3e	; 62
     7bc:	2b 97       	sbiw	r28, 0x0b	; 11
     7be:	0f b6       	in	r0, 0x3f	; 63
     7c0:	f8 94       	cli
     7c2:	de bf       	out	0x3e, r29	; 62
     7c4:	0f be       	out	0x3f, r0	; 63
     7c6:	cd bf       	out	0x3d, r28	; 61
     7c8:	6c 01       	movw	r12, r24
     7ca:	7b 01       	movw	r14, r22
     7cc:	8a 01       	movw	r16, r20
     7ce:	fc 01       	movw	r30, r24
     7d0:	17 82       	std	Z+7, r1	; 0x07
     7d2:	16 82       	std	Z+6, r1	; 0x06
     7d4:	83 81       	ldd	r24, Z+3	; 0x03
     7d6:	81 ff       	sbrs	r24, 1
     7d8:	bf c1       	rjmp	.+894    	; 0xb58 <vfprintf+0x3c4>
     7da:	ce 01       	movw	r24, r28
     7dc:	01 96       	adiw	r24, 0x01	; 1
     7de:	3c 01       	movw	r6, r24
     7e0:	f6 01       	movw	r30, r12
     7e2:	93 81       	ldd	r25, Z+3	; 0x03
     7e4:	f7 01       	movw	r30, r14
     7e6:	93 fd       	sbrc	r25, 3
     7e8:	85 91       	lpm	r24, Z+
     7ea:	93 ff       	sbrs	r25, 3
     7ec:	81 91       	ld	r24, Z+
     7ee:	7f 01       	movw	r14, r30
     7f0:	88 23       	and	r24, r24
     7f2:	09 f4       	brne	.+2      	; 0x7f6 <vfprintf+0x62>
     7f4:	ad c1       	rjmp	.+858    	; 0xb50 <vfprintf+0x3bc>
     7f6:	85 32       	cpi	r24, 0x25	; 37
     7f8:	39 f4       	brne	.+14     	; 0x808 <vfprintf+0x74>
     7fa:	93 fd       	sbrc	r25, 3
     7fc:	85 91       	lpm	r24, Z+
     7fe:	93 ff       	sbrs	r25, 3
     800:	81 91       	ld	r24, Z+
     802:	7f 01       	movw	r14, r30
     804:	85 32       	cpi	r24, 0x25	; 37
     806:	21 f4       	brne	.+8      	; 0x810 <vfprintf+0x7c>
     808:	b6 01       	movw	r22, r12
     80a:	90 e0       	ldi	r25, 0x00	; 0
     80c:	f3 d4       	rcall	.+2534   	; 0x11f4 <fputc>
     80e:	e8 cf       	rjmp	.-48     	; 0x7e0 <vfprintf+0x4c>
     810:	91 2c       	mov	r9, r1
     812:	21 2c       	mov	r2, r1
     814:	31 2c       	mov	r3, r1
     816:	ff e1       	ldi	r31, 0x1F	; 31
     818:	f3 15       	cp	r31, r3
     81a:	d8 f0       	brcs	.+54     	; 0x852 <vfprintf+0xbe>
     81c:	8b 32       	cpi	r24, 0x2B	; 43
     81e:	79 f0       	breq	.+30     	; 0x83e <vfprintf+0xaa>
     820:	38 f4       	brcc	.+14     	; 0x830 <vfprintf+0x9c>
     822:	80 32       	cpi	r24, 0x20	; 32
     824:	79 f0       	breq	.+30     	; 0x844 <vfprintf+0xb0>
     826:	83 32       	cpi	r24, 0x23	; 35
     828:	a1 f4       	brne	.+40     	; 0x852 <vfprintf+0xbe>
     82a:	23 2d       	mov	r18, r3
     82c:	20 61       	ori	r18, 0x10	; 16
     82e:	1d c0       	rjmp	.+58     	; 0x86a <vfprintf+0xd6>
     830:	8d 32       	cpi	r24, 0x2D	; 45
     832:	61 f0       	breq	.+24     	; 0x84c <vfprintf+0xb8>
     834:	80 33       	cpi	r24, 0x30	; 48
     836:	69 f4       	brne	.+26     	; 0x852 <vfprintf+0xbe>
     838:	23 2d       	mov	r18, r3
     83a:	21 60       	ori	r18, 0x01	; 1
     83c:	16 c0       	rjmp	.+44     	; 0x86a <vfprintf+0xd6>
     83e:	83 2d       	mov	r24, r3
     840:	82 60       	ori	r24, 0x02	; 2
     842:	38 2e       	mov	r3, r24
     844:	e3 2d       	mov	r30, r3
     846:	e4 60       	ori	r30, 0x04	; 4
     848:	3e 2e       	mov	r3, r30
     84a:	2a c0       	rjmp	.+84     	; 0x8a0 <vfprintf+0x10c>
     84c:	f3 2d       	mov	r31, r3
     84e:	f8 60       	ori	r31, 0x08	; 8
     850:	1d c0       	rjmp	.+58     	; 0x88c <vfprintf+0xf8>
     852:	37 fc       	sbrc	r3, 7
     854:	2d c0       	rjmp	.+90     	; 0x8b0 <vfprintf+0x11c>
     856:	20 ed       	ldi	r18, 0xD0	; 208
     858:	28 0f       	add	r18, r24
     85a:	2a 30       	cpi	r18, 0x0A	; 10
     85c:	40 f0       	brcs	.+16     	; 0x86e <vfprintf+0xda>
     85e:	8e 32       	cpi	r24, 0x2E	; 46
     860:	b9 f4       	brne	.+46     	; 0x890 <vfprintf+0xfc>
     862:	36 fc       	sbrc	r3, 6
     864:	75 c1       	rjmp	.+746    	; 0xb50 <vfprintf+0x3bc>
     866:	23 2d       	mov	r18, r3
     868:	20 64       	ori	r18, 0x40	; 64
     86a:	32 2e       	mov	r3, r18
     86c:	19 c0       	rjmp	.+50     	; 0x8a0 <vfprintf+0x10c>
     86e:	36 fe       	sbrs	r3, 6
     870:	06 c0       	rjmp	.+12     	; 0x87e <vfprintf+0xea>
     872:	8a e0       	ldi	r24, 0x0A	; 10
     874:	98 9e       	mul	r9, r24
     876:	20 0d       	add	r18, r0
     878:	11 24       	eor	r1, r1
     87a:	92 2e       	mov	r9, r18
     87c:	11 c0       	rjmp	.+34     	; 0x8a0 <vfprintf+0x10c>
     87e:	ea e0       	ldi	r30, 0x0A	; 10
     880:	2e 9e       	mul	r2, r30
     882:	20 0d       	add	r18, r0
     884:	11 24       	eor	r1, r1
     886:	22 2e       	mov	r2, r18
     888:	f3 2d       	mov	r31, r3
     88a:	f0 62       	ori	r31, 0x20	; 32
     88c:	3f 2e       	mov	r3, r31
     88e:	08 c0       	rjmp	.+16     	; 0x8a0 <vfprintf+0x10c>
     890:	8c 36       	cpi	r24, 0x6C	; 108
     892:	21 f4       	brne	.+8      	; 0x89c <vfprintf+0x108>
     894:	83 2d       	mov	r24, r3
     896:	80 68       	ori	r24, 0x80	; 128
     898:	38 2e       	mov	r3, r24
     89a:	02 c0       	rjmp	.+4      	; 0x8a0 <vfprintf+0x10c>
     89c:	88 36       	cpi	r24, 0x68	; 104
     89e:	41 f4       	brne	.+16     	; 0x8b0 <vfprintf+0x11c>
     8a0:	f7 01       	movw	r30, r14
     8a2:	93 fd       	sbrc	r25, 3
     8a4:	85 91       	lpm	r24, Z+
     8a6:	93 ff       	sbrs	r25, 3
     8a8:	81 91       	ld	r24, Z+
     8aa:	7f 01       	movw	r14, r30
     8ac:	81 11       	cpse	r24, r1
     8ae:	b3 cf       	rjmp	.-154    	; 0x816 <vfprintf+0x82>
     8b0:	98 2f       	mov	r25, r24
     8b2:	9f 7d       	andi	r25, 0xDF	; 223
     8b4:	95 54       	subi	r25, 0x45	; 69
     8b6:	93 30       	cpi	r25, 0x03	; 3
     8b8:	28 f4       	brcc	.+10     	; 0x8c4 <vfprintf+0x130>
     8ba:	0c 5f       	subi	r16, 0xFC	; 252
     8bc:	1f 4f       	sbci	r17, 0xFF	; 255
     8be:	9f e3       	ldi	r25, 0x3F	; 63
     8c0:	99 83       	std	Y+1, r25	; 0x01
     8c2:	0d c0       	rjmp	.+26     	; 0x8de <vfprintf+0x14a>
     8c4:	83 36       	cpi	r24, 0x63	; 99
     8c6:	31 f0       	breq	.+12     	; 0x8d4 <vfprintf+0x140>
     8c8:	83 37       	cpi	r24, 0x73	; 115
     8ca:	71 f0       	breq	.+28     	; 0x8e8 <vfprintf+0x154>
     8cc:	83 35       	cpi	r24, 0x53	; 83
     8ce:	09 f0       	breq	.+2      	; 0x8d2 <vfprintf+0x13e>
     8d0:	55 c0       	rjmp	.+170    	; 0x97c <vfprintf+0x1e8>
     8d2:	20 c0       	rjmp	.+64     	; 0x914 <vfprintf+0x180>
     8d4:	f8 01       	movw	r30, r16
     8d6:	80 81       	ld	r24, Z
     8d8:	89 83       	std	Y+1, r24	; 0x01
     8da:	0e 5f       	subi	r16, 0xFE	; 254
     8dc:	1f 4f       	sbci	r17, 0xFF	; 255
     8de:	88 24       	eor	r8, r8
     8e0:	83 94       	inc	r8
     8e2:	91 2c       	mov	r9, r1
     8e4:	53 01       	movw	r10, r6
     8e6:	12 c0       	rjmp	.+36     	; 0x90c <vfprintf+0x178>
     8e8:	28 01       	movw	r4, r16
     8ea:	f2 e0       	ldi	r31, 0x02	; 2
     8ec:	4f 0e       	add	r4, r31
     8ee:	51 1c       	adc	r5, r1
     8f0:	f8 01       	movw	r30, r16
     8f2:	a0 80       	ld	r10, Z
     8f4:	b1 80       	ldd	r11, Z+1	; 0x01
     8f6:	36 fe       	sbrs	r3, 6
     8f8:	03 c0       	rjmp	.+6      	; 0x900 <vfprintf+0x16c>
     8fa:	69 2d       	mov	r22, r9
     8fc:	70 e0       	ldi	r23, 0x00	; 0
     8fe:	02 c0       	rjmp	.+4      	; 0x904 <vfprintf+0x170>
     900:	6f ef       	ldi	r22, 0xFF	; 255
     902:	7f ef       	ldi	r23, 0xFF	; 255
     904:	c5 01       	movw	r24, r10
     906:	2d d4       	rcall	.+2138   	; 0x1162 <strnlen>
     908:	4c 01       	movw	r8, r24
     90a:	82 01       	movw	r16, r4
     90c:	f3 2d       	mov	r31, r3
     90e:	ff 77       	andi	r31, 0x7F	; 127
     910:	3f 2e       	mov	r3, r31
     912:	15 c0       	rjmp	.+42     	; 0x93e <vfprintf+0x1aa>
     914:	28 01       	movw	r4, r16
     916:	22 e0       	ldi	r18, 0x02	; 2
     918:	42 0e       	add	r4, r18
     91a:	51 1c       	adc	r5, r1
     91c:	f8 01       	movw	r30, r16
     91e:	a0 80       	ld	r10, Z
     920:	b1 80       	ldd	r11, Z+1	; 0x01
     922:	36 fe       	sbrs	r3, 6
     924:	03 c0       	rjmp	.+6      	; 0x92c <vfprintf+0x198>
     926:	69 2d       	mov	r22, r9
     928:	70 e0       	ldi	r23, 0x00	; 0
     92a:	02 c0       	rjmp	.+4      	; 0x930 <vfprintf+0x19c>
     92c:	6f ef       	ldi	r22, 0xFF	; 255
     92e:	7f ef       	ldi	r23, 0xFF	; 255
     930:	c5 01       	movw	r24, r10
     932:	0c d4       	rcall	.+2072   	; 0x114c <strnlen_P>
     934:	4c 01       	movw	r8, r24
     936:	f3 2d       	mov	r31, r3
     938:	f0 68       	ori	r31, 0x80	; 128
     93a:	3f 2e       	mov	r3, r31
     93c:	82 01       	movw	r16, r4
     93e:	33 fc       	sbrc	r3, 3
     940:	19 c0       	rjmp	.+50     	; 0x974 <vfprintf+0x1e0>
     942:	82 2d       	mov	r24, r2
     944:	90 e0       	ldi	r25, 0x00	; 0
     946:	88 16       	cp	r8, r24
     948:	99 06       	cpc	r9, r25
     94a:	a0 f4       	brcc	.+40     	; 0x974 <vfprintf+0x1e0>
     94c:	b6 01       	movw	r22, r12
     94e:	80 e2       	ldi	r24, 0x20	; 32
     950:	90 e0       	ldi	r25, 0x00	; 0
     952:	50 d4       	rcall	.+2208   	; 0x11f4 <fputc>
     954:	2a 94       	dec	r2
     956:	f5 cf       	rjmp	.-22     	; 0x942 <vfprintf+0x1ae>
     958:	f5 01       	movw	r30, r10
     95a:	37 fc       	sbrc	r3, 7
     95c:	85 91       	lpm	r24, Z+
     95e:	37 fe       	sbrs	r3, 7
     960:	81 91       	ld	r24, Z+
     962:	5f 01       	movw	r10, r30
     964:	b6 01       	movw	r22, r12
     966:	90 e0       	ldi	r25, 0x00	; 0
     968:	45 d4       	rcall	.+2186   	; 0x11f4 <fputc>
     96a:	21 10       	cpse	r2, r1
     96c:	2a 94       	dec	r2
     96e:	21 e0       	ldi	r18, 0x01	; 1
     970:	82 1a       	sub	r8, r18
     972:	91 08       	sbc	r9, r1
     974:	81 14       	cp	r8, r1
     976:	91 04       	cpc	r9, r1
     978:	79 f7       	brne	.-34     	; 0x958 <vfprintf+0x1c4>
     97a:	e1 c0       	rjmp	.+450    	; 0xb3e <vfprintf+0x3aa>
     97c:	84 36       	cpi	r24, 0x64	; 100
     97e:	11 f0       	breq	.+4      	; 0x984 <vfprintf+0x1f0>
     980:	89 36       	cpi	r24, 0x69	; 105
     982:	39 f5       	brne	.+78     	; 0x9d2 <vfprintf+0x23e>
     984:	f8 01       	movw	r30, r16
     986:	37 fe       	sbrs	r3, 7
     988:	07 c0       	rjmp	.+14     	; 0x998 <vfprintf+0x204>
     98a:	60 81       	ld	r22, Z
     98c:	71 81       	ldd	r23, Z+1	; 0x01
     98e:	82 81       	ldd	r24, Z+2	; 0x02
     990:	93 81       	ldd	r25, Z+3	; 0x03
     992:	0c 5f       	subi	r16, 0xFC	; 252
     994:	1f 4f       	sbci	r17, 0xFF	; 255
     996:	08 c0       	rjmp	.+16     	; 0x9a8 <vfprintf+0x214>
     998:	60 81       	ld	r22, Z
     99a:	71 81       	ldd	r23, Z+1	; 0x01
     99c:	07 2e       	mov	r0, r23
     99e:	00 0c       	add	r0, r0
     9a0:	88 0b       	sbc	r24, r24
     9a2:	99 0b       	sbc	r25, r25
     9a4:	0e 5f       	subi	r16, 0xFE	; 254
     9a6:	1f 4f       	sbci	r17, 0xFF	; 255
     9a8:	f3 2d       	mov	r31, r3
     9aa:	ff 76       	andi	r31, 0x6F	; 111
     9ac:	3f 2e       	mov	r3, r31
     9ae:	97 ff       	sbrs	r25, 7
     9b0:	09 c0       	rjmp	.+18     	; 0x9c4 <vfprintf+0x230>
     9b2:	90 95       	com	r25
     9b4:	80 95       	com	r24
     9b6:	70 95       	com	r23
     9b8:	61 95       	neg	r22
     9ba:	7f 4f       	sbci	r23, 0xFF	; 255
     9bc:	8f 4f       	sbci	r24, 0xFF	; 255
     9be:	9f 4f       	sbci	r25, 0xFF	; 255
     9c0:	f0 68       	ori	r31, 0x80	; 128
     9c2:	3f 2e       	mov	r3, r31
     9c4:	2a e0       	ldi	r18, 0x0A	; 10
     9c6:	30 e0       	ldi	r19, 0x00	; 0
     9c8:	a3 01       	movw	r20, r6
     9ca:	69 d4       	rcall	.+2258   	; 0x129e <__ultoa_invert>
     9cc:	88 2e       	mov	r8, r24
     9ce:	86 18       	sub	r8, r6
     9d0:	44 c0       	rjmp	.+136    	; 0xa5a <vfprintf+0x2c6>
     9d2:	85 37       	cpi	r24, 0x75	; 117
     9d4:	31 f4       	brne	.+12     	; 0x9e2 <vfprintf+0x24e>
     9d6:	23 2d       	mov	r18, r3
     9d8:	2f 7e       	andi	r18, 0xEF	; 239
     9da:	b2 2e       	mov	r11, r18
     9dc:	2a e0       	ldi	r18, 0x0A	; 10
     9de:	30 e0       	ldi	r19, 0x00	; 0
     9e0:	25 c0       	rjmp	.+74     	; 0xa2c <vfprintf+0x298>
     9e2:	93 2d       	mov	r25, r3
     9e4:	99 7f       	andi	r25, 0xF9	; 249
     9e6:	b9 2e       	mov	r11, r25
     9e8:	8f 36       	cpi	r24, 0x6F	; 111
     9ea:	c1 f0       	breq	.+48     	; 0xa1c <vfprintf+0x288>
     9ec:	18 f4       	brcc	.+6      	; 0x9f4 <vfprintf+0x260>
     9ee:	88 35       	cpi	r24, 0x58	; 88
     9f0:	79 f0       	breq	.+30     	; 0xa10 <vfprintf+0x27c>
     9f2:	ae c0       	rjmp	.+348    	; 0xb50 <vfprintf+0x3bc>
     9f4:	80 37       	cpi	r24, 0x70	; 112
     9f6:	19 f0       	breq	.+6      	; 0x9fe <vfprintf+0x26a>
     9f8:	88 37       	cpi	r24, 0x78	; 120
     9fa:	21 f0       	breq	.+8      	; 0xa04 <vfprintf+0x270>
     9fc:	a9 c0       	rjmp	.+338    	; 0xb50 <vfprintf+0x3bc>
     9fe:	e9 2f       	mov	r30, r25
     a00:	e0 61       	ori	r30, 0x10	; 16
     a02:	be 2e       	mov	r11, r30
     a04:	b4 fe       	sbrs	r11, 4
     a06:	0d c0       	rjmp	.+26     	; 0xa22 <vfprintf+0x28e>
     a08:	fb 2d       	mov	r31, r11
     a0a:	f4 60       	ori	r31, 0x04	; 4
     a0c:	bf 2e       	mov	r11, r31
     a0e:	09 c0       	rjmp	.+18     	; 0xa22 <vfprintf+0x28e>
     a10:	34 fe       	sbrs	r3, 4
     a12:	0a c0       	rjmp	.+20     	; 0xa28 <vfprintf+0x294>
     a14:	29 2f       	mov	r18, r25
     a16:	26 60       	ori	r18, 0x06	; 6
     a18:	b2 2e       	mov	r11, r18
     a1a:	06 c0       	rjmp	.+12     	; 0xa28 <vfprintf+0x294>
     a1c:	28 e0       	ldi	r18, 0x08	; 8
     a1e:	30 e0       	ldi	r19, 0x00	; 0
     a20:	05 c0       	rjmp	.+10     	; 0xa2c <vfprintf+0x298>
     a22:	20 e1       	ldi	r18, 0x10	; 16
     a24:	30 e0       	ldi	r19, 0x00	; 0
     a26:	02 c0       	rjmp	.+4      	; 0xa2c <vfprintf+0x298>
     a28:	20 e1       	ldi	r18, 0x10	; 16
     a2a:	32 e0       	ldi	r19, 0x02	; 2
     a2c:	f8 01       	movw	r30, r16
     a2e:	b7 fe       	sbrs	r11, 7
     a30:	07 c0       	rjmp	.+14     	; 0xa40 <vfprintf+0x2ac>
     a32:	60 81       	ld	r22, Z
     a34:	71 81       	ldd	r23, Z+1	; 0x01
     a36:	82 81       	ldd	r24, Z+2	; 0x02
     a38:	93 81       	ldd	r25, Z+3	; 0x03
     a3a:	0c 5f       	subi	r16, 0xFC	; 252
     a3c:	1f 4f       	sbci	r17, 0xFF	; 255
     a3e:	06 c0       	rjmp	.+12     	; 0xa4c <vfprintf+0x2b8>
     a40:	60 81       	ld	r22, Z
     a42:	71 81       	ldd	r23, Z+1	; 0x01
     a44:	80 e0       	ldi	r24, 0x00	; 0
     a46:	90 e0       	ldi	r25, 0x00	; 0
     a48:	0e 5f       	subi	r16, 0xFE	; 254
     a4a:	1f 4f       	sbci	r17, 0xFF	; 255
     a4c:	a3 01       	movw	r20, r6
     a4e:	27 d4       	rcall	.+2126   	; 0x129e <__ultoa_invert>
     a50:	88 2e       	mov	r8, r24
     a52:	86 18       	sub	r8, r6
     a54:	fb 2d       	mov	r31, r11
     a56:	ff 77       	andi	r31, 0x7F	; 127
     a58:	3f 2e       	mov	r3, r31
     a5a:	36 fe       	sbrs	r3, 6
     a5c:	0d c0       	rjmp	.+26     	; 0xa78 <vfprintf+0x2e4>
     a5e:	23 2d       	mov	r18, r3
     a60:	2e 7f       	andi	r18, 0xFE	; 254
     a62:	a2 2e       	mov	r10, r18
     a64:	89 14       	cp	r8, r9
     a66:	58 f4       	brcc	.+22     	; 0xa7e <vfprintf+0x2ea>
     a68:	34 fe       	sbrs	r3, 4
     a6a:	0b c0       	rjmp	.+22     	; 0xa82 <vfprintf+0x2ee>
     a6c:	32 fc       	sbrc	r3, 2
     a6e:	09 c0       	rjmp	.+18     	; 0xa82 <vfprintf+0x2ee>
     a70:	83 2d       	mov	r24, r3
     a72:	8e 7e       	andi	r24, 0xEE	; 238
     a74:	a8 2e       	mov	r10, r24
     a76:	05 c0       	rjmp	.+10     	; 0xa82 <vfprintf+0x2ee>
     a78:	b8 2c       	mov	r11, r8
     a7a:	a3 2c       	mov	r10, r3
     a7c:	03 c0       	rjmp	.+6      	; 0xa84 <vfprintf+0x2f0>
     a7e:	b8 2c       	mov	r11, r8
     a80:	01 c0       	rjmp	.+2      	; 0xa84 <vfprintf+0x2f0>
     a82:	b9 2c       	mov	r11, r9
     a84:	a4 fe       	sbrs	r10, 4
     a86:	0f c0       	rjmp	.+30     	; 0xaa6 <vfprintf+0x312>
     a88:	fe 01       	movw	r30, r28
     a8a:	e8 0d       	add	r30, r8
     a8c:	f1 1d       	adc	r31, r1
     a8e:	80 81       	ld	r24, Z
     a90:	80 33       	cpi	r24, 0x30	; 48
     a92:	21 f4       	brne	.+8      	; 0xa9c <vfprintf+0x308>
     a94:	9a 2d       	mov	r25, r10
     a96:	99 7e       	andi	r25, 0xE9	; 233
     a98:	a9 2e       	mov	r10, r25
     a9a:	09 c0       	rjmp	.+18     	; 0xaae <vfprintf+0x31a>
     a9c:	a2 fe       	sbrs	r10, 2
     a9e:	06 c0       	rjmp	.+12     	; 0xaac <vfprintf+0x318>
     aa0:	b3 94       	inc	r11
     aa2:	b3 94       	inc	r11
     aa4:	04 c0       	rjmp	.+8      	; 0xaae <vfprintf+0x31a>
     aa6:	8a 2d       	mov	r24, r10
     aa8:	86 78       	andi	r24, 0x86	; 134
     aaa:	09 f0       	breq	.+2      	; 0xaae <vfprintf+0x31a>
     aac:	b3 94       	inc	r11
     aae:	a3 fc       	sbrc	r10, 3
     ab0:	10 c0       	rjmp	.+32     	; 0xad2 <vfprintf+0x33e>
     ab2:	a0 fe       	sbrs	r10, 0
     ab4:	06 c0       	rjmp	.+12     	; 0xac2 <vfprintf+0x32e>
     ab6:	b2 14       	cp	r11, r2
     ab8:	80 f4       	brcc	.+32     	; 0xada <vfprintf+0x346>
     aba:	28 0c       	add	r2, r8
     abc:	92 2c       	mov	r9, r2
     abe:	9b 18       	sub	r9, r11
     ac0:	0d c0       	rjmp	.+26     	; 0xadc <vfprintf+0x348>
     ac2:	b2 14       	cp	r11, r2
     ac4:	58 f4       	brcc	.+22     	; 0xadc <vfprintf+0x348>
     ac6:	b6 01       	movw	r22, r12
     ac8:	80 e2       	ldi	r24, 0x20	; 32
     aca:	90 e0       	ldi	r25, 0x00	; 0
     acc:	93 d3       	rcall	.+1830   	; 0x11f4 <fputc>
     ace:	b3 94       	inc	r11
     ad0:	f8 cf       	rjmp	.-16     	; 0xac2 <vfprintf+0x32e>
     ad2:	b2 14       	cp	r11, r2
     ad4:	18 f4       	brcc	.+6      	; 0xadc <vfprintf+0x348>
     ad6:	2b 18       	sub	r2, r11
     ad8:	02 c0       	rjmp	.+4      	; 0xade <vfprintf+0x34a>
     ada:	98 2c       	mov	r9, r8
     adc:	21 2c       	mov	r2, r1
     ade:	a4 fe       	sbrs	r10, 4
     ae0:	0f c0       	rjmp	.+30     	; 0xb00 <vfprintf+0x36c>
     ae2:	b6 01       	movw	r22, r12
     ae4:	80 e3       	ldi	r24, 0x30	; 48
     ae6:	90 e0       	ldi	r25, 0x00	; 0
     ae8:	85 d3       	rcall	.+1802   	; 0x11f4 <fputc>
     aea:	a2 fe       	sbrs	r10, 2
     aec:	16 c0       	rjmp	.+44     	; 0xb1a <vfprintf+0x386>
     aee:	a1 fc       	sbrc	r10, 1
     af0:	03 c0       	rjmp	.+6      	; 0xaf8 <vfprintf+0x364>
     af2:	88 e7       	ldi	r24, 0x78	; 120
     af4:	90 e0       	ldi	r25, 0x00	; 0
     af6:	02 c0       	rjmp	.+4      	; 0xafc <vfprintf+0x368>
     af8:	88 e5       	ldi	r24, 0x58	; 88
     afa:	90 e0       	ldi	r25, 0x00	; 0
     afc:	b6 01       	movw	r22, r12
     afe:	0c c0       	rjmp	.+24     	; 0xb18 <vfprintf+0x384>
     b00:	8a 2d       	mov	r24, r10
     b02:	86 78       	andi	r24, 0x86	; 134
     b04:	51 f0       	breq	.+20     	; 0xb1a <vfprintf+0x386>
     b06:	a1 fe       	sbrs	r10, 1
     b08:	02 c0       	rjmp	.+4      	; 0xb0e <vfprintf+0x37a>
     b0a:	8b e2       	ldi	r24, 0x2B	; 43
     b0c:	01 c0       	rjmp	.+2      	; 0xb10 <vfprintf+0x37c>
     b0e:	80 e2       	ldi	r24, 0x20	; 32
     b10:	a7 fc       	sbrc	r10, 7
     b12:	8d e2       	ldi	r24, 0x2D	; 45
     b14:	b6 01       	movw	r22, r12
     b16:	90 e0       	ldi	r25, 0x00	; 0
     b18:	6d d3       	rcall	.+1754   	; 0x11f4 <fputc>
     b1a:	89 14       	cp	r8, r9
     b1c:	30 f4       	brcc	.+12     	; 0xb2a <vfprintf+0x396>
     b1e:	b6 01       	movw	r22, r12
     b20:	80 e3       	ldi	r24, 0x30	; 48
     b22:	90 e0       	ldi	r25, 0x00	; 0
     b24:	67 d3       	rcall	.+1742   	; 0x11f4 <fputc>
     b26:	9a 94       	dec	r9
     b28:	f8 cf       	rjmp	.-16     	; 0xb1a <vfprintf+0x386>
     b2a:	8a 94       	dec	r8
     b2c:	f3 01       	movw	r30, r6
     b2e:	e8 0d       	add	r30, r8
     b30:	f1 1d       	adc	r31, r1
     b32:	80 81       	ld	r24, Z
     b34:	b6 01       	movw	r22, r12
     b36:	90 e0       	ldi	r25, 0x00	; 0
     b38:	5d d3       	rcall	.+1722   	; 0x11f4 <fputc>
     b3a:	81 10       	cpse	r8, r1
     b3c:	f6 cf       	rjmp	.-20     	; 0xb2a <vfprintf+0x396>
     b3e:	22 20       	and	r2, r2
     b40:	09 f4       	brne	.+2      	; 0xb44 <vfprintf+0x3b0>
     b42:	4e ce       	rjmp	.-868    	; 0x7e0 <vfprintf+0x4c>
     b44:	b6 01       	movw	r22, r12
     b46:	80 e2       	ldi	r24, 0x20	; 32
     b48:	90 e0       	ldi	r25, 0x00	; 0
     b4a:	54 d3       	rcall	.+1704   	; 0x11f4 <fputc>
     b4c:	2a 94       	dec	r2
     b4e:	f7 cf       	rjmp	.-18     	; 0xb3e <vfprintf+0x3aa>
     b50:	f6 01       	movw	r30, r12
     b52:	86 81       	ldd	r24, Z+6	; 0x06
     b54:	97 81       	ldd	r25, Z+7	; 0x07
     b56:	02 c0       	rjmp	.+4      	; 0xb5c <vfprintf+0x3c8>
     b58:	8f ef       	ldi	r24, 0xFF	; 255
     b5a:	9f ef       	ldi	r25, 0xFF	; 255
     b5c:	2b 96       	adiw	r28, 0x0b	; 11
     b5e:	0f b6       	in	r0, 0x3f	; 63
     b60:	f8 94       	cli
     b62:	de bf       	out	0x3e, r29	; 62
     b64:	0f be       	out	0x3f, r0	; 63
     b66:	cd bf       	out	0x3d, r28	; 61
     b68:	df 91       	pop	r29
     b6a:	cf 91       	pop	r28
     b6c:	1f 91       	pop	r17
     b6e:	0f 91       	pop	r16
     b70:	ff 90       	pop	r15
     b72:	ef 90       	pop	r14
     b74:	df 90       	pop	r13
     b76:	cf 90       	pop	r12
     b78:	bf 90       	pop	r11
     b7a:	af 90       	pop	r10
     b7c:	9f 90       	pop	r9
     b7e:	8f 90       	pop	r8
     b80:	7f 90       	pop	r7
     b82:	6f 90       	pop	r6
     b84:	5f 90       	pop	r5
     b86:	4f 90       	pop	r4
     b88:	3f 90       	pop	r3
     b8a:	2f 90       	pop	r2
     b8c:	08 95       	ret

00000b8e <putval>:
     b8e:	20 fd       	sbrc	r18, 0
     b90:	09 c0       	rjmp	.+18     	; 0xba4 <putval+0x16>
     b92:	fc 01       	movw	r30, r24
     b94:	23 fd       	sbrc	r18, 3
     b96:	05 c0       	rjmp	.+10     	; 0xba2 <putval+0x14>
     b98:	22 ff       	sbrs	r18, 2
     b9a:	02 c0       	rjmp	.+4      	; 0xba0 <putval+0x12>
     b9c:	73 83       	std	Z+3, r23	; 0x03
     b9e:	62 83       	std	Z+2, r22	; 0x02
     ba0:	51 83       	std	Z+1, r21	; 0x01
     ba2:	40 83       	st	Z, r20
     ba4:	08 95       	ret

00000ba6 <mulacc>:
     ba6:	44 fd       	sbrc	r20, 4
     ba8:	17 c0       	rjmp	.+46     	; 0xbd8 <mulacc+0x32>
     baa:	46 fd       	sbrc	r20, 6
     bac:	17 c0       	rjmp	.+46     	; 0xbdc <mulacc+0x36>
     bae:	ab 01       	movw	r20, r22
     bb0:	bc 01       	movw	r22, r24
     bb2:	da 01       	movw	r26, r20
     bb4:	fb 01       	movw	r30, r22
     bb6:	aa 0f       	add	r26, r26
     bb8:	bb 1f       	adc	r27, r27
     bba:	ee 1f       	adc	r30, r30
     bbc:	ff 1f       	adc	r31, r31
     bbe:	10 94       	com	r1
     bc0:	d1 f7       	brne	.-12     	; 0xbb6 <mulacc+0x10>
     bc2:	4a 0f       	add	r20, r26
     bc4:	5b 1f       	adc	r21, r27
     bc6:	6e 1f       	adc	r22, r30
     bc8:	7f 1f       	adc	r23, r31
     bca:	cb 01       	movw	r24, r22
     bcc:	ba 01       	movw	r22, r20
     bce:	66 0f       	add	r22, r22
     bd0:	77 1f       	adc	r23, r23
     bd2:	88 1f       	adc	r24, r24
     bd4:	99 1f       	adc	r25, r25
     bd6:	09 c0       	rjmp	.+18     	; 0xbea <mulacc+0x44>
     bd8:	33 e0       	ldi	r19, 0x03	; 3
     bda:	01 c0       	rjmp	.+2      	; 0xbde <mulacc+0x38>
     bdc:	34 e0       	ldi	r19, 0x04	; 4
     bde:	66 0f       	add	r22, r22
     be0:	77 1f       	adc	r23, r23
     be2:	88 1f       	adc	r24, r24
     be4:	99 1f       	adc	r25, r25
     be6:	31 50       	subi	r19, 0x01	; 1
     be8:	d1 f7       	brne	.-12     	; 0xbde <mulacc+0x38>
     bea:	62 0f       	add	r22, r18
     bec:	71 1d       	adc	r23, r1
     bee:	81 1d       	adc	r24, r1
     bf0:	91 1d       	adc	r25, r1
     bf2:	08 95       	ret

00000bf4 <skip_spaces>:
     bf4:	0f 93       	push	r16
     bf6:	1f 93       	push	r17
     bf8:	cf 93       	push	r28
     bfa:	df 93       	push	r29
     bfc:	8c 01       	movw	r16, r24
     bfe:	c8 01       	movw	r24, r16
     c00:	bb d2       	rcall	.+1398   	; 0x1178 <fgetc>
     c02:	ec 01       	movw	r28, r24
     c04:	97 fd       	sbrc	r25, 7
     c06:	06 c0       	rjmp	.+12     	; 0xc14 <skip_spaces+0x20>
     c08:	8e d2       	rcall	.+1308   	; 0x1126 <isspace>
     c0a:	89 2b       	or	r24, r25
     c0c:	c1 f7       	brne	.-16     	; 0xbfe <skip_spaces+0xa>
     c0e:	b8 01       	movw	r22, r16
     c10:	ce 01       	movw	r24, r28
     c12:	2c d3       	rcall	.+1624   	; 0x126c <ungetc>
     c14:	ce 01       	movw	r24, r28
     c16:	df 91       	pop	r29
     c18:	cf 91       	pop	r28
     c1a:	1f 91       	pop	r17
     c1c:	0f 91       	pop	r16
     c1e:	08 95       	ret

00000c20 <conv_int>:
     c20:	8f 92       	push	r8
     c22:	9f 92       	push	r9
     c24:	af 92       	push	r10
     c26:	bf 92       	push	r11
     c28:	ef 92       	push	r14
     c2a:	ff 92       	push	r15
     c2c:	0f 93       	push	r16
     c2e:	1f 93       	push	r17
     c30:	cf 93       	push	r28
     c32:	df 93       	push	r29
     c34:	8c 01       	movw	r16, r24
     c36:	d6 2f       	mov	r29, r22
     c38:	7a 01       	movw	r14, r20
     c3a:	b2 2e       	mov	r11, r18
     c3c:	9d d2       	rcall	.+1338   	; 0x1178 <fgetc>
     c3e:	9c 01       	movw	r18, r24
     c40:	33 27       	eor	r19, r19
     c42:	2b 32       	cpi	r18, 0x2B	; 43
     c44:	31 05       	cpc	r19, r1
     c46:	31 f0       	breq	.+12     	; 0xc54 <conv_int+0x34>
     c48:	2d 32       	cpi	r18, 0x2D	; 45
     c4a:	31 05       	cpc	r19, r1
     c4c:	59 f4       	brne	.+22     	; 0xc64 <conv_int+0x44>
     c4e:	8b 2d       	mov	r24, r11
     c50:	80 68       	ori	r24, 0x80	; 128
     c52:	b8 2e       	mov	r11, r24
     c54:	d1 50       	subi	r29, 0x01	; 1
     c56:	11 f4       	brne	.+4      	; 0xc5c <conv_int+0x3c>
     c58:	80 e0       	ldi	r24, 0x00	; 0
     c5a:	61 c0       	rjmp	.+194    	; 0xd1e <conv_int+0xfe>
     c5c:	c8 01       	movw	r24, r16
     c5e:	8c d2       	rcall	.+1304   	; 0x1178 <fgetc>
     c60:	97 fd       	sbrc	r25, 7
     c62:	fa cf       	rjmp	.-12     	; 0xc58 <conv_int+0x38>
     c64:	cb 2d       	mov	r28, r11
     c66:	cd 7f       	andi	r28, 0xFD	; 253
     c68:	2b 2d       	mov	r18, r11
     c6a:	20 73       	andi	r18, 0x30	; 48
     c6c:	f9 f4       	brne	.+62     	; 0xcac <conv_int+0x8c>
     c6e:	80 33       	cpi	r24, 0x30	; 48
     c70:	e9 f4       	brne	.+58     	; 0xcac <conv_int+0x8c>
     c72:	aa 24       	eor	r10, r10
     c74:	aa 94       	dec	r10
     c76:	ad 0e       	add	r10, r29
     c78:	09 f4       	brne	.+2      	; 0xc7c <conv_int+0x5c>
     c7a:	3e c0       	rjmp	.+124    	; 0xcf8 <conv_int+0xd8>
     c7c:	c8 01       	movw	r24, r16
     c7e:	7c d2       	rcall	.+1272   	; 0x1178 <fgetc>
     c80:	97 fd       	sbrc	r25, 7
     c82:	3a c0       	rjmp	.+116    	; 0xcf8 <conv_int+0xd8>
     c84:	9c 01       	movw	r18, r24
     c86:	2f 7d       	andi	r18, 0xDF	; 223
     c88:	33 27       	eor	r19, r19
     c8a:	28 35       	cpi	r18, 0x58	; 88
     c8c:	31 05       	cpc	r19, r1
     c8e:	41 f4       	brne	.+16     	; 0xca0 <conv_int+0x80>
     c90:	c2 64       	ori	r28, 0x42	; 66
     c92:	d2 50       	subi	r29, 0x02	; 2
     c94:	89 f1       	breq	.+98     	; 0xcf8 <conv_int+0xd8>
     c96:	c8 01       	movw	r24, r16
     c98:	6f d2       	rcall	.+1246   	; 0x1178 <fgetc>
     c9a:	97 ff       	sbrs	r25, 7
     c9c:	07 c0       	rjmp	.+14     	; 0xcac <conv_int+0x8c>
     c9e:	2c c0       	rjmp	.+88     	; 0xcf8 <conv_int+0xd8>
     ca0:	b6 fe       	sbrs	r11, 6
     ca2:	02 c0       	rjmp	.+4      	; 0xca8 <conv_int+0x88>
     ca4:	c2 60       	ori	r28, 0x02	; 2
     ca6:	01 c0       	rjmp	.+2      	; 0xcaa <conv_int+0x8a>
     ca8:	c2 61       	ori	r28, 0x12	; 18
     caa:	da 2d       	mov	r29, r10
     cac:	81 2c       	mov	r8, r1
     cae:	91 2c       	mov	r9, r1
     cb0:	54 01       	movw	r10, r8
     cb2:	20 ed       	ldi	r18, 0xD0	; 208
     cb4:	28 0f       	add	r18, r24
     cb6:	28 30       	cpi	r18, 0x08	; 8
     cb8:	78 f0       	brcs	.+30     	; 0xcd8 <conv_int+0xb8>
     cba:	c4 ff       	sbrs	r28, 4
     cbc:	03 c0       	rjmp	.+6      	; 0xcc4 <conv_int+0xa4>
     cbe:	b8 01       	movw	r22, r16
     cc0:	d5 d2       	rcall	.+1450   	; 0x126c <ungetc>
     cc2:	17 c0       	rjmp	.+46     	; 0xcf2 <conv_int+0xd2>
     cc4:	2a 30       	cpi	r18, 0x0A	; 10
     cc6:	40 f0       	brcs	.+16     	; 0xcd8 <conv_int+0xb8>
     cc8:	c6 ff       	sbrs	r28, 6
     cca:	f9 cf       	rjmp	.-14     	; 0xcbe <conv_int+0x9e>
     ccc:	2f 7d       	andi	r18, 0xDF	; 223
     cce:	3f ee       	ldi	r19, 0xEF	; 239
     cd0:	32 0f       	add	r19, r18
     cd2:	36 30       	cpi	r19, 0x06	; 6
     cd4:	a0 f7       	brcc	.-24     	; 0xcbe <conv_int+0x9e>
     cd6:	27 50       	subi	r18, 0x07	; 7
     cd8:	4c 2f       	mov	r20, r28
     cda:	c5 01       	movw	r24, r10
     cdc:	b4 01       	movw	r22, r8
     cde:	63 df       	rcall	.-314    	; 0xba6 <mulacc>
     ce0:	4b 01       	movw	r8, r22
     ce2:	5c 01       	movw	r10, r24
     ce4:	c2 60       	ori	r28, 0x02	; 2
     ce6:	d1 50       	subi	r29, 0x01	; 1
     ce8:	51 f0       	breq	.+20     	; 0xcfe <conv_int+0xde>
     cea:	c8 01       	movw	r24, r16
     cec:	45 d2       	rcall	.+1162   	; 0x1178 <fgetc>
     cee:	97 ff       	sbrs	r25, 7
     cf0:	e0 cf       	rjmp	.-64     	; 0xcb2 <conv_int+0x92>
     cf2:	c1 fd       	sbrc	r28, 1
     cf4:	04 c0       	rjmp	.+8      	; 0xcfe <conv_int+0xde>
     cf6:	b0 cf       	rjmp	.-160    	; 0xc58 <conv_int+0x38>
     cf8:	81 2c       	mov	r8, r1
     cfa:	91 2c       	mov	r9, r1
     cfc:	54 01       	movw	r10, r8
     cfe:	c7 ff       	sbrs	r28, 7
     d00:	08 c0       	rjmp	.+16     	; 0xd12 <conv_int+0xf2>
     d02:	b0 94       	com	r11
     d04:	a0 94       	com	r10
     d06:	90 94       	com	r9
     d08:	80 94       	com	r8
     d0a:	81 1c       	adc	r8, r1
     d0c:	91 1c       	adc	r9, r1
     d0e:	a1 1c       	adc	r10, r1
     d10:	b1 1c       	adc	r11, r1
     d12:	2c 2f       	mov	r18, r28
     d14:	b5 01       	movw	r22, r10
     d16:	a4 01       	movw	r20, r8
     d18:	c7 01       	movw	r24, r14
     d1a:	39 df       	rcall	.-398    	; 0xb8e <putval>
     d1c:	81 e0       	ldi	r24, 0x01	; 1
     d1e:	df 91       	pop	r29
     d20:	cf 91       	pop	r28
     d22:	1f 91       	pop	r17
     d24:	0f 91       	pop	r16
     d26:	ff 90       	pop	r15
     d28:	ef 90       	pop	r14
     d2a:	bf 90       	pop	r11
     d2c:	af 90       	pop	r10
     d2e:	9f 90       	pop	r9
     d30:	8f 90       	pop	r8
     d32:	08 95       	ret

00000d34 <conv_brk>:
     d34:	5f 92       	push	r5
     d36:	6f 92       	push	r6
     d38:	7f 92       	push	r7
     d3a:	8f 92       	push	r8
     d3c:	9f 92       	push	r9
     d3e:	af 92       	push	r10
     d40:	bf 92       	push	r11
     d42:	cf 92       	push	r12
     d44:	df 92       	push	r13
     d46:	ef 92       	push	r14
     d48:	ff 92       	push	r15
     d4a:	0f 93       	push	r16
     d4c:	1f 93       	push	r17
     d4e:	cf 93       	push	r28
     d50:	df 93       	push	r29
     d52:	cd b7       	in	r28, 0x3d	; 61
     d54:	de b7       	in	r29, 0x3e	; 62
     d56:	a0 97       	sbiw	r28, 0x20	; 32
     d58:	0f b6       	in	r0, 0x3f	; 63
     d5a:	f8 94       	cli
     d5c:	de bf       	out	0x3e, r29	; 62
     d5e:	0f be       	out	0x3f, r0	; 63
     d60:	cd bf       	out	0x3d, r28	; 61
     d62:	5c 01       	movw	r10, r24
     d64:	96 2e       	mov	r9, r22
     d66:	7a 01       	movw	r14, r20
     d68:	f9 01       	movw	r30, r18
     d6a:	8e 01       	movw	r16, r28
     d6c:	0f 5f       	subi	r16, 0xFF	; 255
     d6e:	1f 4f       	sbci	r17, 0xFF	; 255
     d70:	68 01       	movw	r12, r16
     d72:	80 e2       	ldi	r24, 0x20	; 32
     d74:	d8 01       	movw	r26, r16
     d76:	1d 92       	st	X+, r1
     d78:	8a 95       	dec	r24
     d7a:	e9 f7       	brne	.-6      	; 0xd76 <conv_brk+0x42>
     d7c:	d5 01       	movw	r26, r10
     d7e:	13 96       	adiw	r26, 0x03	; 3
     d80:	8c 90       	ld	r8, X
     d82:	80 e0       	ldi	r24, 0x00	; 0
     d84:	90 e0       	ldi	r25, 0x00	; 0
     d86:	61 2c       	mov	r6, r1
     d88:	71 2c       	mov	r7, r1
     d8a:	30 e0       	ldi	r19, 0x00	; 0
     d8c:	61 e0       	ldi	r22, 0x01	; 1
     d8e:	70 e0       	ldi	r23, 0x00	; 0
     d90:	83 fc       	sbrc	r8, 3
     d92:	25 91       	lpm	r18, Z+
     d94:	83 fe       	sbrs	r8, 3
     d96:	21 91       	ld	r18, Z+
     d98:	8f 01       	movw	r16, r30
     d9a:	52 2e       	mov	r5, r18
     d9c:	21 11       	cpse	r18, r1
     d9e:	03 c0       	rjmp	.+6      	; 0xda6 <conv_brk+0x72>
     da0:	80 e0       	ldi	r24, 0x00	; 0
     da2:	90 e0       	ldi	r25, 0x00	; 0
     da4:	90 c0       	rjmp	.+288    	; 0xec6 <conv_brk+0x192>
     da6:	2e 35       	cpi	r18, 0x5E	; 94
     da8:	11 f4       	brne	.+4      	; 0xdae <conv_brk+0x7a>
     daa:	00 97       	sbiw	r24, 0x00	; 0
     dac:	51 f1       	breq	.+84     	; 0xe02 <conv_brk+0xce>
     dae:	43 2f       	mov	r20, r19
     db0:	50 e0       	ldi	r21, 0x00	; 0
     db2:	48 17       	cp	r20, r24
     db4:	59 07       	cpc	r21, r25
     db6:	3c f4       	brge	.+14     	; 0xdc6 <conv_brk+0x92>
     db8:	2d 35       	cpi	r18, 0x5D	; 93
     dba:	59 f1       	breq	.+86     	; 0xe12 <conv_brk+0xde>
     dbc:	2d 32       	cpi	r18, 0x2D	; 45
     dbe:	19 f4       	brne	.+6      	; 0xdc6 <conv_brk+0x92>
     dc0:	77 20       	and	r7, r7
     dc2:	09 f1       	breq	.+66     	; 0xe06 <conv_brk+0xd2>
     dc4:	03 c0       	rjmp	.+6      	; 0xdcc <conv_brk+0x98>
     dc6:	77 20       	and	r7, r7
     dc8:	09 f4       	brne	.+2      	; 0xdcc <conv_brk+0x98>
     dca:	68 c0       	rjmp	.+208    	; 0xe9c <conv_brk+0x168>
     dcc:	45 2d       	mov	r20, r5
     dce:	46 95       	lsr	r20
     dd0:	46 95       	lsr	r20
     dd2:	46 95       	lsr	r20
     dd4:	d6 01       	movw	r26, r12
     dd6:	a4 0f       	add	r26, r20
     dd8:	b1 1d       	adc	r27, r1
     dda:	45 2d       	mov	r20, r5
     ddc:	47 70       	andi	r20, 0x07	; 7
     dde:	8b 01       	movw	r16, r22
     de0:	02 c0       	rjmp	.+4      	; 0xde6 <conv_brk+0xb2>
     de2:	00 0f       	add	r16, r16
     de4:	11 1f       	adc	r17, r17
     de6:	4a 95       	dec	r20
     de8:	e2 f7       	brpl	.-8      	; 0xde2 <conv_brk+0xae>
     dea:	a8 01       	movw	r20, r16
     dec:	5c 91       	ld	r21, X
     dee:	45 2b       	or	r20, r21
     df0:	4c 93       	st	X, r20
     df2:	65 14       	cp	r6, r5
     df4:	59 f0       	breq	.+22     	; 0xe0c <conv_brk+0xd8>
     df6:	56 14       	cp	r5, r6
     df8:	10 f4       	brcc	.+4      	; 0xdfe <conv_brk+0xca>
     dfa:	53 94       	inc	r5
     dfc:	e7 cf       	rjmp	.-50     	; 0xdcc <conv_brk+0x98>
     dfe:	5a 94       	dec	r5
     e00:	e5 cf       	rjmp	.-54     	; 0xdcc <conv_brk+0x98>
     e02:	31 e0       	ldi	r19, 0x01	; 1
     e04:	04 c0       	rjmp	.+8      	; 0xe0e <conv_brk+0xda>
     e06:	77 24       	eor	r7, r7
     e08:	73 94       	inc	r7
     e0a:	01 c0       	rjmp	.+2      	; 0xe0e <conv_brk+0xda>
     e0c:	71 2c       	mov	r7, r1
     e0e:	01 96       	adiw	r24, 0x01	; 1
     e10:	bf cf       	rjmp	.-130    	; 0xd90 <conv_brk+0x5c>
     e12:	77 20       	and	r7, r7
     e14:	19 f0       	breq	.+6      	; 0xe1c <conv_brk+0xe8>
     e16:	8e 81       	ldd	r24, Y+6	; 0x06
     e18:	80 62       	ori	r24, 0x20	; 32
     e1a:	8e 83       	std	Y+6, r24	; 0x06
     e1c:	31 11       	cpse	r19, r1
     e1e:	03 c0       	rjmp	.+6      	; 0xe26 <conv_brk+0xf2>
     e20:	88 24       	eor	r8, r8
     e22:	83 94       	inc	r8
     e24:	17 c0       	rjmp	.+46     	; 0xe54 <conv_brk+0x120>
     e26:	f6 01       	movw	r30, r12
     e28:	9e 01       	movw	r18, r28
     e2a:	2f 5d       	subi	r18, 0xDF	; 223
     e2c:	3f 4f       	sbci	r19, 0xFF	; 255
     e2e:	80 81       	ld	r24, Z
     e30:	80 95       	com	r24
     e32:	81 93       	st	Z+, r24
     e34:	2e 17       	cp	r18, r30
     e36:	3f 07       	cpc	r19, r31
     e38:	d1 f7       	brne	.-12     	; 0xe2e <conv_brk+0xfa>
     e3a:	f2 cf       	rjmp	.-28     	; 0xe20 <conv_brk+0xec>
     e3c:	e1 14       	cp	r14, r1
     e3e:	f1 04       	cpc	r15, r1
     e40:	29 f0       	breq	.+10     	; 0xe4c <conv_brk+0x118>
     e42:	d7 01       	movw	r26, r14
     e44:	8c 93       	st	X, r24
     e46:	f7 01       	movw	r30, r14
     e48:	31 96       	adiw	r30, 0x01	; 1
     e4a:	7f 01       	movw	r14, r30
     e4c:	9a 94       	dec	r9
     e4e:	81 2c       	mov	r8, r1
     e50:	99 20       	and	r9, r9
     e52:	e9 f0       	breq	.+58     	; 0xe8e <conv_brk+0x15a>
     e54:	c5 01       	movw	r24, r10
     e56:	90 d1       	rcall	.+800    	; 0x1178 <fgetc>
     e58:	97 fd       	sbrc	r25, 7
     e5a:	17 c0       	rjmp	.+46     	; 0xe8a <conv_brk+0x156>
     e5c:	fc 01       	movw	r30, r24
     e5e:	ff 27       	eor	r31, r31
     e60:	23 e0       	ldi	r18, 0x03	; 3
     e62:	f5 95       	asr	r31
     e64:	e7 95       	ror	r30
     e66:	2a 95       	dec	r18
     e68:	e1 f7       	brne	.-8      	; 0xe62 <conv_brk+0x12e>
     e6a:	ec 0d       	add	r30, r12
     e6c:	fd 1d       	adc	r31, r13
     e6e:	20 81       	ld	r18, Z
     e70:	30 e0       	ldi	r19, 0x00	; 0
     e72:	ac 01       	movw	r20, r24
     e74:	47 70       	andi	r20, 0x07	; 7
     e76:	55 27       	eor	r21, r21
     e78:	02 c0       	rjmp	.+4      	; 0xe7e <conv_brk+0x14a>
     e7a:	35 95       	asr	r19
     e7c:	27 95       	ror	r18
     e7e:	4a 95       	dec	r20
     e80:	e2 f7       	brpl	.-8      	; 0xe7a <conv_brk+0x146>
     e82:	20 fd       	sbrc	r18, 0
     e84:	db cf       	rjmp	.-74     	; 0xe3c <conv_brk+0x108>
     e86:	b5 01       	movw	r22, r10
     e88:	f1 d1       	rcall	.+994    	; 0x126c <ungetc>
     e8a:	81 10       	cpse	r8, r1
     e8c:	89 cf       	rjmp	.-238    	; 0xda0 <conv_brk+0x6c>
     e8e:	e1 14       	cp	r14, r1
     e90:	f1 04       	cpc	r15, r1
     e92:	11 f0       	breq	.+4      	; 0xe98 <conv_brk+0x164>
     e94:	d7 01       	movw	r26, r14
     e96:	1c 92       	st	X, r1
     e98:	c8 01       	movw	r24, r16
     e9a:	15 c0       	rjmp	.+42     	; 0xec6 <conv_brk+0x192>
     e9c:	42 2f       	mov	r20, r18
     e9e:	46 95       	lsr	r20
     ea0:	46 95       	lsr	r20
     ea2:	46 95       	lsr	r20
     ea4:	d6 01       	movw	r26, r12
     ea6:	a4 0f       	add	r26, r20
     ea8:	b1 1d       	adc	r27, r1
     eaa:	42 2f       	mov	r20, r18
     eac:	47 70       	andi	r20, 0x07	; 7
     eae:	8b 01       	movw	r16, r22
     eb0:	02 c0       	rjmp	.+4      	; 0xeb6 <conv_brk+0x182>
     eb2:	00 0f       	add	r16, r16
     eb4:	11 1f       	adc	r17, r17
     eb6:	4a 95       	dec	r20
     eb8:	e2 f7       	brpl	.-8      	; 0xeb2 <conv_brk+0x17e>
     eba:	a8 01       	movw	r20, r16
     ebc:	5c 91       	ld	r21, X
     ebe:	45 2b       	or	r20, r21
     ec0:	4c 93       	st	X, r20
     ec2:	62 2e       	mov	r6, r18
     ec4:	a4 cf       	rjmp	.-184    	; 0xe0e <conv_brk+0xda>
     ec6:	a0 96       	adiw	r28, 0x20	; 32
     ec8:	0f b6       	in	r0, 0x3f	; 63
     eca:	f8 94       	cli
     ecc:	de bf       	out	0x3e, r29	; 62
     ece:	0f be       	out	0x3f, r0	; 63
     ed0:	cd bf       	out	0x3d, r28	; 61
     ed2:	df 91       	pop	r29
     ed4:	cf 91       	pop	r28
     ed6:	1f 91       	pop	r17
     ed8:	0f 91       	pop	r16
     eda:	ff 90       	pop	r15
     edc:	ef 90       	pop	r14
     ede:	df 90       	pop	r13
     ee0:	cf 90       	pop	r12
     ee2:	bf 90       	pop	r11
     ee4:	af 90       	pop	r10
     ee6:	9f 90       	pop	r9
     ee8:	8f 90       	pop	r8
     eea:	7f 90       	pop	r7
     eec:	6f 90       	pop	r6
     eee:	5f 90       	pop	r5
     ef0:	08 95       	ret

00000ef2 <vfscanf>:
     ef2:	5f 92       	push	r5
     ef4:	6f 92       	push	r6
     ef6:	7f 92       	push	r7
     ef8:	8f 92       	push	r8
     efa:	9f 92       	push	r9
     efc:	af 92       	push	r10
     efe:	bf 92       	push	r11
     f00:	cf 92       	push	r12
     f02:	df 92       	push	r13
     f04:	ef 92       	push	r14
     f06:	ff 92       	push	r15
     f08:	0f 93       	push	r16
     f0a:	1f 93       	push	r17
     f0c:	cf 93       	push	r28
     f0e:	df 93       	push	r29
     f10:	6c 01       	movw	r12, r24
     f12:	eb 01       	movw	r28, r22
     f14:	5a 01       	movw	r10, r20
     f16:	fc 01       	movw	r30, r24
     f18:	17 82       	std	Z+7, r1	; 0x07
     f1a:	16 82       	std	Z+6, r1	; 0x06
     f1c:	51 2c       	mov	r5, r1
     f1e:	f6 01       	movw	r30, r12
     f20:	e3 80       	ldd	r14, Z+3	; 0x03
     f22:	fe 01       	movw	r30, r28
     f24:	e3 fc       	sbrc	r14, 3
     f26:	85 91       	lpm	r24, Z+
     f28:	e3 fe       	sbrs	r14, 3
     f2a:	81 91       	ld	r24, Z+
     f2c:	18 2f       	mov	r17, r24
     f2e:	ef 01       	movw	r28, r30
     f30:	88 23       	and	r24, r24
     f32:	09 f4       	brne	.+2      	; 0xf36 <vfscanf+0x44>
     f34:	e0 c0       	rjmp	.+448    	; 0x10f6 <__EEPROM_REGION_LENGTH__+0xf6>
     f36:	90 e0       	ldi	r25, 0x00	; 0
     f38:	f6 d0       	rcall	.+492    	; 0x1126 <isspace>
     f3a:	89 2b       	or	r24, r25
     f3c:	19 f0       	breq	.+6      	; 0xf44 <vfscanf+0x52>
     f3e:	c6 01       	movw	r24, r12
     f40:	59 de       	rcall	.-846    	; 0xbf4 <skip_spaces>
     f42:	ed cf       	rjmp	.-38     	; 0xf1e <vfscanf+0x2c>
     f44:	15 32       	cpi	r17, 0x25	; 37
     f46:	41 f4       	brne	.+16     	; 0xf58 <vfscanf+0x66>
     f48:	fe 01       	movw	r30, r28
     f4a:	e3 fc       	sbrc	r14, 3
     f4c:	15 91       	lpm	r17, Z+
     f4e:	e3 fe       	sbrs	r14, 3
     f50:	11 91       	ld	r17, Z+
     f52:	ef 01       	movw	r28, r30
     f54:	15 32       	cpi	r17, 0x25	; 37
     f56:	71 f4       	brne	.+28     	; 0xf74 <vfscanf+0x82>
     f58:	c6 01       	movw	r24, r12
     f5a:	0e d1       	rcall	.+540    	; 0x1178 <fgetc>
     f5c:	97 fd       	sbrc	r25, 7
     f5e:	c9 c0       	rjmp	.+402    	; 0x10f2 <__EEPROM_REGION_LENGTH__+0xf2>
     f60:	41 2f       	mov	r20, r17
     f62:	50 e0       	ldi	r21, 0x00	; 0
     f64:	9c 01       	movw	r18, r24
     f66:	33 27       	eor	r19, r19
     f68:	24 17       	cp	r18, r20
     f6a:	35 07       	cpc	r19, r21
     f6c:	c1 f2       	breq	.-80     	; 0xf1e <vfscanf+0x2c>
     f6e:	b6 01       	movw	r22, r12
     f70:	7d d1       	rcall	.+762    	; 0x126c <ungetc>
     f72:	c1 c0       	rjmp	.+386    	; 0x10f6 <__EEPROM_REGION_LENGTH__+0xf6>
     f74:	1a 32       	cpi	r17, 0x2A	; 42
     f76:	39 f4       	brne	.+14     	; 0xf86 <vfscanf+0x94>
     f78:	e3 fc       	sbrc	r14, 3
     f7a:	15 91       	lpm	r17, Z+
     f7c:	e3 fe       	sbrs	r14, 3
     f7e:	11 91       	ld	r17, Z+
     f80:	ef 01       	movw	r28, r30
     f82:	01 e0       	ldi	r16, 0x01	; 1
     f84:	01 c0       	rjmp	.+2      	; 0xf88 <vfscanf+0x96>
     f86:	00 e0       	ldi	r16, 0x00	; 0
     f88:	f1 2c       	mov	r15, r1
     f8a:	20 ed       	ldi	r18, 0xD0	; 208
     f8c:	21 0f       	add	r18, r17
     f8e:	2a 30       	cpi	r18, 0x0A	; 10
     f90:	78 f4       	brcc	.+30     	; 0xfb0 <vfscanf+0xbe>
     f92:	02 60       	ori	r16, 0x02	; 2
     f94:	6f 2d       	mov	r22, r15
     f96:	70 e0       	ldi	r23, 0x00	; 0
     f98:	80 e0       	ldi	r24, 0x00	; 0
     f9a:	90 e0       	ldi	r25, 0x00	; 0
     f9c:	40 e2       	ldi	r20, 0x20	; 32
     f9e:	03 de       	rcall	.-1018   	; 0xba6 <mulacc>
     fa0:	f6 2e       	mov	r15, r22
     fa2:	fe 01       	movw	r30, r28
     fa4:	e3 fc       	sbrc	r14, 3
     fa6:	15 91       	lpm	r17, Z+
     fa8:	e3 fe       	sbrs	r14, 3
     faa:	11 91       	ld	r17, Z+
     fac:	ef 01       	movw	r28, r30
     fae:	ed cf       	rjmp	.-38     	; 0xf8a <vfscanf+0x98>
     fb0:	01 ff       	sbrs	r16, 1
     fb2:	03 c0       	rjmp	.+6      	; 0xfba <vfscanf+0xc8>
     fb4:	f1 10       	cpse	r15, r1
     fb6:	03 c0       	rjmp	.+6      	; 0xfbe <vfscanf+0xcc>
     fb8:	9e c0       	rjmp	.+316    	; 0x10f6 <__EEPROM_REGION_LENGTH__+0xf6>
     fba:	ff 24       	eor	r15, r15
     fbc:	fa 94       	dec	r15
     fbe:	18 36       	cpi	r17, 0x68	; 104
     fc0:	19 f0       	breq	.+6      	; 0xfc8 <vfscanf+0xd6>
     fc2:	1c 36       	cpi	r17, 0x6C	; 108
     fc4:	51 f0       	breq	.+20     	; 0xfda <vfscanf+0xe8>
     fc6:	10 c0       	rjmp	.+32     	; 0xfe8 <vfscanf+0xf6>
     fc8:	fe 01       	movw	r30, r28
     fca:	e3 fc       	sbrc	r14, 3
     fcc:	15 91       	lpm	r17, Z+
     fce:	e3 fe       	sbrs	r14, 3
     fd0:	11 91       	ld	r17, Z+
     fd2:	ef 01       	movw	r28, r30
     fd4:	18 36       	cpi	r17, 0x68	; 104
     fd6:	41 f4       	brne	.+16     	; 0xfe8 <vfscanf+0xf6>
     fd8:	08 60       	ori	r16, 0x08	; 8
     fda:	04 60       	ori	r16, 0x04	; 4
     fdc:	fe 01       	movw	r30, r28
     fde:	e3 fc       	sbrc	r14, 3
     fe0:	15 91       	lpm	r17, Z+
     fe2:	e3 fe       	sbrs	r14, 3
     fe4:	11 91       	ld	r17, Z+
     fe6:	ef 01       	movw	r28, r30
     fe8:	11 23       	and	r17, r17
     fea:	09 f4       	brne	.+2      	; 0xfee <vfscanf+0xfc>
     fec:	84 c0       	rjmp	.+264    	; 0x10f6 <__EEPROM_REGION_LENGTH__+0xf6>
     fee:	61 2f       	mov	r22, r17
     ff0:	70 e0       	ldi	r23, 0x00	; 0
     ff2:	88 e9       	ldi	r24, 0x98	; 152
     ff4:	90 e0       	ldi	r25, 0x00	; 0
     ff6:	9f d0       	rcall	.+318    	; 0x1136 <strchr_P>
     ff8:	89 2b       	or	r24, r25
     ffa:	09 f4       	brne	.+2      	; 0xffe <vfscanf+0x10c>
     ffc:	7c c0       	rjmp	.+248    	; 0x10f6 <__EEPROM_REGION_LENGTH__+0xf6>
     ffe:	00 fd       	sbrc	r16, 0
    1000:	07 c0       	rjmp	.+14     	; 0x1010 <__EEPROM_REGION_LENGTH__+0x10>
    1002:	f5 01       	movw	r30, r10
    1004:	80 80       	ld	r8, Z
    1006:	91 80       	ldd	r9, Z+1	; 0x01
    1008:	c5 01       	movw	r24, r10
    100a:	02 96       	adiw	r24, 0x02	; 2
    100c:	5c 01       	movw	r10, r24
    100e:	02 c0       	rjmp	.+4      	; 0x1014 <__EEPROM_REGION_LENGTH__+0x14>
    1010:	81 2c       	mov	r8, r1
    1012:	91 2c       	mov	r9, r1
    1014:	1e 36       	cpi	r17, 0x6E	; 110
    1016:	49 f4       	brne	.+18     	; 0x102a <__EEPROM_REGION_LENGTH__+0x2a>
    1018:	f6 01       	movw	r30, r12
    101a:	46 81       	ldd	r20, Z+6	; 0x06
    101c:	57 81       	ldd	r21, Z+7	; 0x07
    101e:	60 e0       	ldi	r22, 0x00	; 0
    1020:	70 e0       	ldi	r23, 0x00	; 0
    1022:	20 2f       	mov	r18, r16
    1024:	c4 01       	movw	r24, r8
    1026:	b3 dd       	rcall	.-1178   	; 0xb8e <putval>
    1028:	7a cf       	rjmp	.-268    	; 0xf1e <vfscanf+0x2c>
    102a:	13 36       	cpi	r17, 0x63	; 99
    102c:	a1 f4       	brne	.+40     	; 0x1056 <__EEPROM_REGION_LENGTH__+0x56>
    102e:	01 fd       	sbrc	r16, 1
    1030:	02 c0       	rjmp	.+4      	; 0x1036 <__EEPROM_REGION_LENGTH__+0x36>
    1032:	ff 24       	eor	r15, r15
    1034:	f3 94       	inc	r15
    1036:	c6 01       	movw	r24, r12
    1038:	9f d0       	rcall	.+318    	; 0x1178 <fgetc>
    103a:	97 fd       	sbrc	r25, 7
    103c:	5a c0       	rjmp	.+180    	; 0x10f2 <__EEPROM_REGION_LENGTH__+0xf2>
    103e:	81 14       	cp	r8, r1
    1040:	91 04       	cpc	r9, r1
    1042:	29 f0       	breq	.+10     	; 0x104e <__EEPROM_REGION_LENGTH__+0x4e>
    1044:	f4 01       	movw	r30, r8
    1046:	80 83       	st	Z, r24
    1048:	c4 01       	movw	r24, r8
    104a:	01 96       	adiw	r24, 0x01	; 1
    104c:	4c 01       	movw	r8, r24
    104e:	fa 94       	dec	r15
    1050:	f1 10       	cpse	r15, r1
    1052:	f1 cf       	rjmp	.-30     	; 0x1036 <__EEPROM_REGION_LENGTH__+0x36>
    1054:	4a c0       	rjmp	.+148    	; 0x10ea <__EEPROM_REGION_LENGTH__+0xea>
    1056:	1b 35       	cpi	r17, 0x5B	; 91
    1058:	51 f4       	brne	.+20     	; 0x106e <__EEPROM_REGION_LENGTH__+0x6e>
    105a:	9e 01       	movw	r18, r28
    105c:	a4 01       	movw	r20, r8
    105e:	6f 2d       	mov	r22, r15
    1060:	c6 01       	movw	r24, r12
    1062:	68 de       	rcall	.-816    	; 0xd34 <conv_brk>
    1064:	ec 01       	movw	r28, r24
    1066:	89 2b       	or	r24, r25
    1068:	09 f0       	breq	.+2      	; 0x106c <__EEPROM_REGION_LENGTH__+0x6c>
    106a:	3f c0       	rjmp	.+126    	; 0x10ea <__EEPROM_REGION_LENGTH__+0xea>
    106c:	39 c0       	rjmp	.+114    	; 0x10e0 <__EEPROM_REGION_LENGTH__+0xe0>
    106e:	c6 01       	movw	r24, r12
    1070:	c1 dd       	rcall	.-1150   	; 0xbf4 <skip_spaces>
    1072:	97 fd       	sbrc	r25, 7
    1074:	3e c0       	rjmp	.+124    	; 0x10f2 <__EEPROM_REGION_LENGTH__+0xf2>
    1076:	1f 36       	cpi	r17, 0x6F	; 111
    1078:	49 f1       	breq	.+82     	; 0x10cc <__EEPROM_REGION_LENGTH__+0xcc>
    107a:	28 f4       	brcc	.+10     	; 0x1086 <__EEPROM_REGION_LENGTH__+0x86>
    107c:	14 36       	cpi	r17, 0x64	; 100
    107e:	21 f1       	breq	.+72     	; 0x10c8 <__EEPROM_REGION_LENGTH__+0xc8>
    1080:	19 36       	cpi	r17, 0x69	; 105
    1082:	39 f1       	breq	.+78     	; 0x10d2 <__EEPROM_REGION_LENGTH__+0xd2>
    1084:	25 c0       	rjmp	.+74     	; 0x10d0 <__EEPROM_REGION_LENGTH__+0xd0>
    1086:	13 37       	cpi	r17, 0x73	; 115
    1088:	71 f0       	breq	.+28     	; 0x10a6 <__EEPROM_REGION_LENGTH__+0xa6>
    108a:	15 37       	cpi	r17, 0x75	; 117
    108c:	e9 f0       	breq	.+58     	; 0x10c8 <__EEPROM_REGION_LENGTH__+0xc8>
    108e:	20 c0       	rjmp	.+64     	; 0x10d0 <__EEPROM_REGION_LENGTH__+0xd0>
    1090:	81 14       	cp	r8, r1
    1092:	91 04       	cpc	r9, r1
    1094:	29 f0       	breq	.+10     	; 0x10a0 <__EEPROM_REGION_LENGTH__+0xa0>
    1096:	f4 01       	movw	r30, r8
    1098:	60 82       	st	Z, r6
    109a:	c4 01       	movw	r24, r8
    109c:	01 96       	adiw	r24, 0x01	; 1
    109e:	4c 01       	movw	r8, r24
    10a0:	fa 94       	dec	r15
    10a2:	ff 20       	and	r15, r15
    10a4:	59 f0       	breq	.+22     	; 0x10bc <__EEPROM_REGION_LENGTH__+0xbc>
    10a6:	c6 01       	movw	r24, r12
    10a8:	67 d0       	rcall	.+206    	; 0x1178 <fgetc>
    10aa:	3c 01       	movw	r6, r24
    10ac:	97 fd       	sbrc	r25, 7
    10ae:	06 c0       	rjmp	.+12     	; 0x10bc <__EEPROM_REGION_LENGTH__+0xbc>
    10b0:	3a d0       	rcall	.+116    	; 0x1126 <isspace>
    10b2:	89 2b       	or	r24, r25
    10b4:	69 f3       	breq	.-38     	; 0x1090 <__EEPROM_REGION_LENGTH__+0x90>
    10b6:	b6 01       	movw	r22, r12
    10b8:	c3 01       	movw	r24, r6
    10ba:	d8 d0       	rcall	.+432    	; 0x126c <ungetc>
    10bc:	81 14       	cp	r8, r1
    10be:	91 04       	cpc	r9, r1
    10c0:	a1 f0       	breq	.+40     	; 0x10ea <__EEPROM_REGION_LENGTH__+0xea>
    10c2:	f4 01       	movw	r30, r8
    10c4:	10 82       	st	Z, r1
    10c6:	11 c0       	rjmp	.+34     	; 0x10ea <__EEPROM_REGION_LENGTH__+0xea>
    10c8:	00 62       	ori	r16, 0x20	; 32
    10ca:	03 c0       	rjmp	.+6      	; 0x10d2 <__EEPROM_REGION_LENGTH__+0xd2>
    10cc:	00 61       	ori	r16, 0x10	; 16
    10ce:	01 c0       	rjmp	.+2      	; 0x10d2 <__EEPROM_REGION_LENGTH__+0xd2>
    10d0:	00 64       	ori	r16, 0x40	; 64
    10d2:	20 2f       	mov	r18, r16
    10d4:	a4 01       	movw	r20, r8
    10d6:	6f 2d       	mov	r22, r15
    10d8:	c6 01       	movw	r24, r12
    10da:	a2 dd       	rcall	.-1212   	; 0xc20 <conv_int>
    10dc:	81 11       	cpse	r24, r1
    10de:	05 c0       	rjmp	.+10     	; 0x10ea <__EEPROM_REGION_LENGTH__+0xea>
    10e0:	f6 01       	movw	r30, r12
    10e2:	83 81       	ldd	r24, Z+3	; 0x03
    10e4:	80 73       	andi	r24, 0x30	; 48
    10e6:	29 f4       	brne	.+10     	; 0x10f2 <__EEPROM_REGION_LENGTH__+0xf2>
    10e8:	06 c0       	rjmp	.+12     	; 0x10f6 <__EEPROM_REGION_LENGTH__+0xf6>
    10ea:	00 fd       	sbrc	r16, 0
    10ec:	18 cf       	rjmp	.-464    	; 0xf1e <vfscanf+0x2c>
    10ee:	53 94       	inc	r5
    10f0:	16 cf       	rjmp	.-468    	; 0xf1e <vfscanf+0x2c>
    10f2:	55 20       	and	r5, r5
    10f4:	19 f0       	breq	.+6      	; 0x10fc <__EEPROM_REGION_LENGTH__+0xfc>
    10f6:	85 2d       	mov	r24, r5
    10f8:	90 e0       	ldi	r25, 0x00	; 0
    10fa:	02 c0       	rjmp	.+4      	; 0x1100 <__EEPROM_REGION_LENGTH__+0x100>
    10fc:	8f ef       	ldi	r24, 0xFF	; 255
    10fe:	9f ef       	ldi	r25, 0xFF	; 255
    1100:	df 91       	pop	r29
    1102:	cf 91       	pop	r28
    1104:	1f 91       	pop	r17
    1106:	0f 91       	pop	r16
    1108:	ff 90       	pop	r15
    110a:	ef 90       	pop	r14
    110c:	df 90       	pop	r13
    110e:	cf 90       	pop	r12
    1110:	bf 90       	pop	r11
    1112:	af 90       	pop	r10
    1114:	9f 90       	pop	r9
    1116:	8f 90       	pop	r8
    1118:	7f 90       	pop	r7
    111a:	6f 90       	pop	r6
    111c:	5f 90       	pop	r5
    111e:	08 95       	ret

00001120 <__ctype_isfalse>:
    1120:	99 27       	eor	r25, r25
    1122:	88 27       	eor	r24, r24

00001124 <__ctype_istrue>:
    1124:	08 95       	ret

00001126 <isspace>:
    1126:	91 11       	cpse	r25, r1
    1128:	fb cf       	rjmp	.-10     	; 0x1120 <__ctype_isfalse>
    112a:	80 32       	cpi	r24, 0x20	; 32
    112c:	19 f0       	breq	.+6      	; 0x1134 <isspace+0xe>
    112e:	89 50       	subi	r24, 0x09	; 9
    1130:	85 50       	subi	r24, 0x05	; 5
    1132:	d0 f7       	brcc	.-12     	; 0x1128 <isspace+0x2>
    1134:	08 95       	ret

00001136 <strchr_P>:
    1136:	fc 01       	movw	r30, r24
    1138:	05 90       	lpm	r0, Z+
    113a:	06 16       	cp	r0, r22
    113c:	21 f0       	breq	.+8      	; 0x1146 <strchr_P+0x10>
    113e:	00 20       	and	r0, r0
    1140:	d9 f7       	brne	.-10     	; 0x1138 <strchr_P+0x2>
    1142:	c0 01       	movw	r24, r0
    1144:	08 95       	ret
    1146:	31 97       	sbiw	r30, 0x01	; 1
    1148:	cf 01       	movw	r24, r30
    114a:	08 95       	ret

0000114c <strnlen_P>:
    114c:	fc 01       	movw	r30, r24
    114e:	05 90       	lpm	r0, Z+
    1150:	61 50       	subi	r22, 0x01	; 1
    1152:	70 40       	sbci	r23, 0x00	; 0
    1154:	01 10       	cpse	r0, r1
    1156:	d8 f7       	brcc	.-10     	; 0x114e <strnlen_P+0x2>
    1158:	80 95       	com	r24
    115a:	90 95       	com	r25
    115c:	8e 0f       	add	r24, r30
    115e:	9f 1f       	adc	r25, r31
    1160:	08 95       	ret

00001162 <strnlen>:
    1162:	fc 01       	movw	r30, r24
    1164:	61 50       	subi	r22, 0x01	; 1
    1166:	70 40       	sbci	r23, 0x00	; 0
    1168:	01 90       	ld	r0, Z+
    116a:	01 10       	cpse	r0, r1
    116c:	d8 f7       	brcc	.-10     	; 0x1164 <strnlen+0x2>
    116e:	80 95       	com	r24
    1170:	90 95       	com	r25
    1172:	8e 0f       	add	r24, r30
    1174:	9f 1f       	adc	r25, r31
    1176:	08 95       	ret

00001178 <fgetc>:
    1178:	cf 93       	push	r28
    117a:	df 93       	push	r29
    117c:	ec 01       	movw	r28, r24
    117e:	2b 81       	ldd	r18, Y+3	; 0x03
    1180:	20 ff       	sbrs	r18, 0
    1182:	33 c0       	rjmp	.+102    	; 0x11ea <fgetc+0x72>
    1184:	26 ff       	sbrs	r18, 6
    1186:	0a c0       	rjmp	.+20     	; 0x119c <fgetc+0x24>
    1188:	2f 7b       	andi	r18, 0xBF	; 191
    118a:	2b 83       	std	Y+3, r18	; 0x03
    118c:	8e 81       	ldd	r24, Y+6	; 0x06
    118e:	9f 81       	ldd	r25, Y+7	; 0x07
    1190:	01 96       	adiw	r24, 0x01	; 1
    1192:	9f 83       	std	Y+7, r25	; 0x07
    1194:	8e 83       	std	Y+6, r24	; 0x06
    1196:	8a 81       	ldd	r24, Y+2	; 0x02
    1198:	90 e0       	ldi	r25, 0x00	; 0
    119a:	29 c0       	rjmp	.+82     	; 0x11ee <fgetc+0x76>
    119c:	22 ff       	sbrs	r18, 2
    119e:	0f c0       	rjmp	.+30     	; 0x11be <fgetc+0x46>
    11a0:	e8 81       	ld	r30, Y
    11a2:	f9 81       	ldd	r31, Y+1	; 0x01
    11a4:	80 81       	ld	r24, Z
    11a6:	08 2e       	mov	r0, r24
    11a8:	00 0c       	add	r0, r0
    11aa:	99 0b       	sbc	r25, r25
    11ac:	00 97       	sbiw	r24, 0x00	; 0
    11ae:	19 f4       	brne	.+6      	; 0x11b6 <fgetc+0x3e>
    11b0:	20 62       	ori	r18, 0x20	; 32
    11b2:	2b 83       	std	Y+3, r18	; 0x03
    11b4:	1a c0       	rjmp	.+52     	; 0x11ea <fgetc+0x72>
    11b6:	31 96       	adiw	r30, 0x01	; 1
    11b8:	f9 83       	std	Y+1, r31	; 0x01
    11ba:	e8 83       	st	Y, r30
    11bc:	0e c0       	rjmp	.+28     	; 0x11da <fgetc+0x62>
    11be:	ea 85       	ldd	r30, Y+10	; 0x0a
    11c0:	fb 85       	ldd	r31, Y+11	; 0x0b
    11c2:	09 95       	icall
    11c4:	97 ff       	sbrs	r25, 7
    11c6:	09 c0       	rjmp	.+18     	; 0x11da <fgetc+0x62>
    11c8:	2b 81       	ldd	r18, Y+3	; 0x03
    11ca:	01 96       	adiw	r24, 0x01	; 1
    11cc:	11 f0       	breq	.+4      	; 0x11d2 <fgetc+0x5a>
    11ce:	80 e2       	ldi	r24, 0x20	; 32
    11d0:	01 c0       	rjmp	.+2      	; 0x11d4 <fgetc+0x5c>
    11d2:	80 e1       	ldi	r24, 0x10	; 16
    11d4:	82 2b       	or	r24, r18
    11d6:	8b 83       	std	Y+3, r24	; 0x03
    11d8:	08 c0       	rjmp	.+16     	; 0x11ea <fgetc+0x72>
    11da:	2e 81       	ldd	r18, Y+6	; 0x06
    11dc:	3f 81       	ldd	r19, Y+7	; 0x07
    11de:	2f 5f       	subi	r18, 0xFF	; 255
    11e0:	3f 4f       	sbci	r19, 0xFF	; 255
    11e2:	3f 83       	std	Y+7, r19	; 0x07
    11e4:	2e 83       	std	Y+6, r18	; 0x06
    11e6:	99 27       	eor	r25, r25
    11e8:	02 c0       	rjmp	.+4      	; 0x11ee <fgetc+0x76>
    11ea:	8f ef       	ldi	r24, 0xFF	; 255
    11ec:	9f ef       	ldi	r25, 0xFF	; 255
    11ee:	df 91       	pop	r29
    11f0:	cf 91       	pop	r28
    11f2:	08 95       	ret

000011f4 <fputc>:
    11f4:	0f 93       	push	r16
    11f6:	1f 93       	push	r17
    11f8:	cf 93       	push	r28
    11fa:	df 93       	push	r29
    11fc:	fb 01       	movw	r30, r22
    11fe:	23 81       	ldd	r18, Z+3	; 0x03
    1200:	21 fd       	sbrc	r18, 1
    1202:	03 c0       	rjmp	.+6      	; 0x120a <fputc+0x16>
    1204:	8f ef       	ldi	r24, 0xFF	; 255
    1206:	9f ef       	ldi	r25, 0xFF	; 255
    1208:	2c c0       	rjmp	.+88     	; 0x1262 <fputc+0x6e>
    120a:	22 ff       	sbrs	r18, 2
    120c:	16 c0       	rjmp	.+44     	; 0x123a <fputc+0x46>
    120e:	46 81       	ldd	r20, Z+6	; 0x06
    1210:	57 81       	ldd	r21, Z+7	; 0x07
    1212:	24 81       	ldd	r18, Z+4	; 0x04
    1214:	35 81       	ldd	r19, Z+5	; 0x05
    1216:	42 17       	cp	r20, r18
    1218:	53 07       	cpc	r21, r19
    121a:	44 f4       	brge	.+16     	; 0x122c <fputc+0x38>
    121c:	a0 81       	ld	r26, Z
    121e:	b1 81       	ldd	r27, Z+1	; 0x01
    1220:	9d 01       	movw	r18, r26
    1222:	2f 5f       	subi	r18, 0xFF	; 255
    1224:	3f 4f       	sbci	r19, 0xFF	; 255
    1226:	31 83       	std	Z+1, r19	; 0x01
    1228:	20 83       	st	Z, r18
    122a:	8c 93       	st	X, r24
    122c:	26 81       	ldd	r18, Z+6	; 0x06
    122e:	37 81       	ldd	r19, Z+7	; 0x07
    1230:	2f 5f       	subi	r18, 0xFF	; 255
    1232:	3f 4f       	sbci	r19, 0xFF	; 255
    1234:	37 83       	std	Z+7, r19	; 0x07
    1236:	26 83       	std	Z+6, r18	; 0x06
    1238:	14 c0       	rjmp	.+40     	; 0x1262 <fputc+0x6e>
    123a:	8b 01       	movw	r16, r22
    123c:	ec 01       	movw	r28, r24
    123e:	fb 01       	movw	r30, r22
    1240:	00 84       	ldd	r0, Z+8	; 0x08
    1242:	f1 85       	ldd	r31, Z+9	; 0x09
    1244:	e0 2d       	mov	r30, r0
    1246:	09 95       	icall
    1248:	89 2b       	or	r24, r25
    124a:	e1 f6       	brne	.-72     	; 0x1204 <fputc+0x10>
    124c:	d8 01       	movw	r26, r16
    124e:	16 96       	adiw	r26, 0x06	; 6
    1250:	8d 91       	ld	r24, X+
    1252:	9c 91       	ld	r25, X
    1254:	17 97       	sbiw	r26, 0x07	; 7
    1256:	01 96       	adiw	r24, 0x01	; 1
    1258:	17 96       	adiw	r26, 0x07	; 7
    125a:	9c 93       	st	X, r25
    125c:	8e 93       	st	-X, r24
    125e:	16 97       	sbiw	r26, 0x06	; 6
    1260:	ce 01       	movw	r24, r28
    1262:	df 91       	pop	r29
    1264:	cf 91       	pop	r28
    1266:	1f 91       	pop	r17
    1268:	0f 91       	pop	r16
    126a:	08 95       	ret

0000126c <ungetc>:
    126c:	fb 01       	movw	r30, r22
    126e:	23 81       	ldd	r18, Z+3	; 0x03
    1270:	20 ff       	sbrs	r18, 0
    1272:	12 c0       	rjmp	.+36     	; 0x1298 <ungetc+0x2c>
    1274:	26 fd       	sbrc	r18, 6
    1276:	10 c0       	rjmp	.+32     	; 0x1298 <ungetc+0x2c>
    1278:	8f 3f       	cpi	r24, 0xFF	; 255
    127a:	3f ef       	ldi	r19, 0xFF	; 255
    127c:	93 07       	cpc	r25, r19
    127e:	61 f0       	breq	.+24     	; 0x1298 <ungetc+0x2c>
    1280:	82 83       	std	Z+2, r24	; 0x02
    1282:	2f 7d       	andi	r18, 0xDF	; 223
    1284:	20 64       	ori	r18, 0x40	; 64
    1286:	23 83       	std	Z+3, r18	; 0x03
    1288:	26 81       	ldd	r18, Z+6	; 0x06
    128a:	37 81       	ldd	r19, Z+7	; 0x07
    128c:	21 50       	subi	r18, 0x01	; 1
    128e:	31 09       	sbc	r19, r1
    1290:	37 83       	std	Z+7, r19	; 0x07
    1292:	26 83       	std	Z+6, r18	; 0x06
    1294:	99 27       	eor	r25, r25
    1296:	08 95       	ret
    1298:	8f ef       	ldi	r24, 0xFF	; 255
    129a:	9f ef       	ldi	r25, 0xFF	; 255
    129c:	08 95       	ret

0000129e <__ultoa_invert>:
    129e:	fa 01       	movw	r30, r20
    12a0:	aa 27       	eor	r26, r26
    12a2:	28 30       	cpi	r18, 0x08	; 8
    12a4:	51 f1       	breq	.+84     	; 0x12fa <__ultoa_invert+0x5c>
    12a6:	20 31       	cpi	r18, 0x10	; 16
    12a8:	81 f1       	breq	.+96     	; 0x130a <__ultoa_invert+0x6c>
    12aa:	e8 94       	clt
    12ac:	6f 93       	push	r22
    12ae:	6e 7f       	andi	r22, 0xFE	; 254
    12b0:	6e 5f       	subi	r22, 0xFE	; 254
    12b2:	7f 4f       	sbci	r23, 0xFF	; 255
    12b4:	8f 4f       	sbci	r24, 0xFF	; 255
    12b6:	9f 4f       	sbci	r25, 0xFF	; 255
    12b8:	af 4f       	sbci	r26, 0xFF	; 255
    12ba:	b1 e0       	ldi	r27, 0x01	; 1
    12bc:	3e d0       	rcall	.+124    	; 0x133a <__ultoa_invert+0x9c>
    12be:	b4 e0       	ldi	r27, 0x04	; 4
    12c0:	3c d0       	rcall	.+120    	; 0x133a <__ultoa_invert+0x9c>
    12c2:	67 0f       	add	r22, r23
    12c4:	78 1f       	adc	r23, r24
    12c6:	89 1f       	adc	r24, r25
    12c8:	9a 1f       	adc	r25, r26
    12ca:	a1 1d       	adc	r26, r1
    12cc:	68 0f       	add	r22, r24
    12ce:	79 1f       	adc	r23, r25
    12d0:	8a 1f       	adc	r24, r26
    12d2:	91 1d       	adc	r25, r1
    12d4:	a1 1d       	adc	r26, r1
    12d6:	6a 0f       	add	r22, r26
    12d8:	71 1d       	adc	r23, r1
    12da:	81 1d       	adc	r24, r1
    12dc:	91 1d       	adc	r25, r1
    12de:	a1 1d       	adc	r26, r1
    12e0:	20 d0       	rcall	.+64     	; 0x1322 <__ultoa_invert+0x84>
    12e2:	09 f4       	brne	.+2      	; 0x12e6 <__ultoa_invert+0x48>
    12e4:	68 94       	set
    12e6:	3f 91       	pop	r19
    12e8:	2a e0       	ldi	r18, 0x0A	; 10
    12ea:	26 9f       	mul	r18, r22
    12ec:	11 24       	eor	r1, r1
    12ee:	30 19       	sub	r19, r0
    12f0:	30 5d       	subi	r19, 0xD0	; 208
    12f2:	31 93       	st	Z+, r19
    12f4:	de f6       	brtc	.-74     	; 0x12ac <__ultoa_invert+0xe>
    12f6:	cf 01       	movw	r24, r30
    12f8:	08 95       	ret
    12fa:	46 2f       	mov	r20, r22
    12fc:	47 70       	andi	r20, 0x07	; 7
    12fe:	40 5d       	subi	r20, 0xD0	; 208
    1300:	41 93       	st	Z+, r20
    1302:	b3 e0       	ldi	r27, 0x03	; 3
    1304:	0f d0       	rcall	.+30     	; 0x1324 <__ultoa_invert+0x86>
    1306:	c9 f7       	brne	.-14     	; 0x12fa <__ultoa_invert+0x5c>
    1308:	f6 cf       	rjmp	.-20     	; 0x12f6 <__ultoa_invert+0x58>
    130a:	46 2f       	mov	r20, r22
    130c:	4f 70       	andi	r20, 0x0F	; 15
    130e:	40 5d       	subi	r20, 0xD0	; 208
    1310:	4a 33       	cpi	r20, 0x3A	; 58
    1312:	18 f0       	brcs	.+6      	; 0x131a <__ultoa_invert+0x7c>
    1314:	49 5d       	subi	r20, 0xD9	; 217
    1316:	31 fd       	sbrc	r19, 1
    1318:	40 52       	subi	r20, 0x20	; 32
    131a:	41 93       	st	Z+, r20
    131c:	02 d0       	rcall	.+4      	; 0x1322 <__ultoa_invert+0x84>
    131e:	a9 f7       	brne	.-22     	; 0x130a <__ultoa_invert+0x6c>
    1320:	ea cf       	rjmp	.-44     	; 0x12f6 <__ultoa_invert+0x58>
    1322:	b4 e0       	ldi	r27, 0x04	; 4
    1324:	a6 95       	lsr	r26
    1326:	97 95       	ror	r25
    1328:	87 95       	ror	r24
    132a:	77 95       	ror	r23
    132c:	67 95       	ror	r22
    132e:	ba 95       	dec	r27
    1330:	c9 f7       	brne	.-14     	; 0x1324 <__ultoa_invert+0x86>
    1332:	00 97       	sbiw	r24, 0x00	; 0
    1334:	61 05       	cpc	r22, r1
    1336:	71 05       	cpc	r23, r1
    1338:	08 95       	ret
    133a:	9b 01       	movw	r18, r22
    133c:	ac 01       	movw	r20, r24
    133e:	0a 2e       	mov	r0, r26
    1340:	06 94       	lsr	r0
    1342:	57 95       	ror	r21
    1344:	47 95       	ror	r20
    1346:	37 95       	ror	r19
    1348:	27 95       	ror	r18
    134a:	ba 95       	dec	r27
    134c:	c9 f7       	brne	.-14     	; 0x1340 <__ultoa_invert+0xa2>
    134e:	62 0f       	add	r22, r18
    1350:	73 1f       	adc	r23, r19
    1352:	84 1f       	adc	r24, r20
    1354:	95 1f       	adc	r25, r21
    1356:	a0 1d       	adc	r26, r0
    1358:	08 95       	ret

0000135a <_exit>:
    135a:	f8 94       	cli

0000135c <__stop_program>:
    135c:	ff cf       	rjmp	.-2      	; 0x135c <__stop_program>
